Certificate Revocation List (CRL):
        Version 2 (0x1)
    Signature Algorithm: ecdsa-with-SHA256
        Issuer: /C=US/ST=Washington/L=Seattle/O=wolfSSL/OU=Development/CN=www.wolfssl.com/emailAddress=info@wolfssl.com
        Last Update: Oct 20 18:19:08 2017 GMT
        Next Update: Jul 16 18:19:08 2020 GMT
        CRL extensions:
            X509v3 Authority Key Identifier: 
                keyid:AB:E0:C3:26:4C:18:D4:72:BB:D2:84:8C:9C:0A:05:92:80:12:53:52

            X509v3 CRL Number: 
                8193
No Revoked Certificates.
    Signature Algorithm: ecdsa-with-SHA256
         30:65:02:31:00:ad:70:4b:08:03:b6:ab:d4:9e:8d:dd:2a:05:
         ec:07:6b:86:61:08:69:08:1e:01:02:42:22:5f:a9:6d:4f:de:
         20:6b:aa:a0:8f:e4:0a:8e:40:7c:cf:84:fb:10:50:01:90:02:
         30:50:35:d3:6c:44:bd:ad:56:9d:3e:47:09:ac:b8:0d:db:5c:
         54:f2:1c:25:fb:d2:cb:63:2b:9e:17:a3:1e:0b:ba:15:a8:65:
         7e:5b:94:c0:11:f4:e2:c9:f1:25:ba:08:26
-----BEGIN X509 CRL-----
MIIBcjCB+QIBATAKBggqhkjOPQQDAjCBlzELMAkGA1UEBhMCVVMxEzARBgNVBAgM
Cldhc2hpbmd0b24xEDAOBgNVBAcMB1NlYXR0bGUxEDAOBgNVBAoMB3dvbGZTU0wx
FDASBgNVBAsMC0RldmVsb3BtZW50MRgwFgYDVQQDDA93d3cud29sZnNzbC5jb20x
HzAdBgkqhkiG9w0BCQEWEGluZm9Ad29sZnNzbC5jb20XDTE3MTAyMDE4MTkwOFoX
DTIwMDcxNjE4MTkwOFqgMDAuMB8GA1UdIwQYMBaAFKvgwyZMGNRyu9KEjJwKBZKA
ElNSMAsGA1UdFAQEAgIgATAKBggqhkjOPQQDAgNoADBlAjEArXBLCAO2q9Sejd0q
BewHa4ZhCGkIHgECQiJfqW1P3iBrqqCP5AqOQHzPhPsQUAGQAjBQNdNsRL2tVp0+
RwmsuA3bXFTyHCX70stjK54Xox4LuhWoZX5blMAR9OLJ8SW6CCY=
-----END X509 CRL-----
