Certificate:
    Data:
        Version: 3 (0x2)
        Serial Number: 6 (0x6)
    Signature Algorithm: sha256WithRSAEncryption
        Issuer: C=US, ST=Washington, L=Seattle, O=wolfSSL, OU=Engineering, CN=wolfSSL intermediate CA 1/emailAddress=info@wolfssl.com
        Validity
            Not Before: Dec 30 19:12:46 2015 GMT
            Not After : Sep 25 19:12:46 2018 GMT
        Subject: C=US, ST=Washington, L=Seattle, O=wolfSSL, OU=Engineering, CN=www2.wolfssl.com/emailAddress=info@wolfssl.com
        Subject Public Key Info:
            Public Key Algorithm: rsaEncryption
                Public-Key: (2048 bit)
                Modulus:
                    00:c6:35:8a:e8:aa:bd:33:c9:5e:84:43:67:42:65:
                    2a:3c:e3:89:b4:a6:67:a1:3b:ee:6d:85:d1:d3:2b:
                    6e:b1:62:d4:f1:22:43:a0:d5:b7:a5:7d:b5:f5:6c:
                    09:06:7c:8c:ef:87:af:4f:34:ce:27:eb:f3:4a:37:
                    57:c3:d7:d8:ee:e4:a0:77:65:2c:a7:c2:10:65:6b:
                    7b:48:c4:d8:28:fe:4c:4e:4f:7e:2f:20:c4:49:5b:
                    71:38:40:0d:36:a3:57:b3:44:da:be:cd:54:14:15:
                    66:0f:d3:05:08:f2:2e:03:67:2e:5c:5d:e1:b0:e6:
                    c0:25:8f:58:77:5b:d3:d7:a8:22:ea:56:d3:0e:01:
                    6d:38:34:56:47:aa:12:c4:ba:2a:ef:ec:18:f5:d4:
                    db:b9:fa:6f:dc:50:eb:ee:10:a2:14:b5:9a:12:e1:
                    e3:85:0f:79:14:b8:70:6d:0d:1c:1d:38:57:85:6a:
                    82:0c:d6:bd:2c:bf:20:f1:28:2e:f6:34:80:a7:0d:
                    32:82:35:4f:c1:b1:e5:9e:26:d5:f8:b9:39:57:43:
                    ef:ed:f1:10:5c:3e:32:ba:d9:e4:9e:40:cd:28:ea:
                    26:46:9b:a9:34:8d:9f:b9:fd:45:7d:14:f7:ce:ca:
                    3b:85:87:a7:64:74:9c:65:29:18:b3:f5:b1:ad:92:
                    62:39
                Exponent: 65537 (0x10001)
        X509v3 extensions:
            X509v3 Basic Constraints: 
                CA:FALSE
            X509v3 Subject Key Identifier: 
                7D:6D:FD:F6:0B:4F:3F:4A:62:91:F5:F3:13:60:51:86:C3:5A:9F:D6
            X509v3 Authority Key Identifier: 
                keyid:83:C6:3A:89:2C:81:F4:02:D7:9D:4C:E2:2A:C0:71:82:64:44:DA:0E
                DirName:/C=US/ST=Washington/L=Seattle/O=wolfSSL/OU=Engineering/CN=wolfSSL root CA/emailAddress=info@wolfssl.com
                serial:01

            X509v3 Key Usage: 
                Digital Signature, Non Repudiation, Key Encipherment
            Authority Information Access: 
                OCSP - URI:http://127.0.0.1:22221

    Signature Algorithm: sha256WithRSAEncryption
         dd:b6:17:51:62:83:8d:32:7f:2f:21:2f:0a:ea:6b:3f:f0:c9:
         59:9d:1e:4b:82:7d:aa:1d:6d:a8:f5:c0:20:78:a8:fd:a3:ca:
         cb:1f:2b:99:28:97:d2:ce:71:48:95:82:ee:e4:a4:d9:32:75:
         7f:1d:b2:97:8d:5c:3c:96:9a:b9:4c:05:fe:d1:af:81:4a:25:
         c5:66:a1:f3:c7:0e:f3:76:db:3d:a2:87:7e:5c:c4:0a:d3:d3:
         97:a1:7c:46:fc:94:2c:dc:0a:7e:a1:b2:f2:7f:c7:cb:d9:7a:
         c2:fa:8d:5b:4a:75:c0:e4:dc:57:4b:84:2a:5a:84:35:13:7b:
         15:49:a0:e8:9e:d8:1d:90:a4:99:4e:a4:dd:fc:ba:d3:f5:12:
         aa:36:f2:87:04:b4:09:04:6f:94:a1:18:3e:46:ce:ae:55:f4:
         0f:d8:26:ee:11:cf:d4:8e:e5:33:da:17:e2:ad:43:05:50:e2:
         38:c7:d2:15:18:23:f0:fa:cd:cc:b3:e9:ea:00:5a:af:29:90:
         6a:69:8c:ba:c8:f7:84:84:57:0d:80:b1:10:2c:bd:9d:33:42:
         6d:f1:58:d5:b4:6a:79:e4:26:8f:41:ef:a2:b5:84:6b:c2:6d:
         be:5e:76:8f:29:25:13:e8:ba:dd:aa:64:3e:74:bc:90:2d:aa:
         bb:1a:cd:c9
-----BEGIN CERTIFICATE-----
MIIE7jCCA9agAwIBAgIBBjANBgkqhkiG9w0BAQsFADCBoTELMAkGA1UEBhMCVVMx
EzARBgNVBAgMCldhc2hpbmd0b24xEDAOBgNVBAcMB1NlYXR0bGUxEDAOBgNVBAoM
B3dvbGZTU0wxFDASBgNVBAsMC0VuZ2luZWVyaW5nMSIwIAYDVQQDDBl3b2xmU1NM
IGludGVybWVkaWF0ZSBDQSAxMR8wHQYJKoZIhvcNAQkBFhBpbmZvQHdvbGZzc2wu
Y29tMB4XDTE1MTIzMDE5MTI0NloXDTE4MDkyNTE5MTI0NlowgZgxCzAJBgNVBAYT
AlVTMRMwEQYDVQQIDApXYXNoaW5ndG9uMRAwDgYDVQQHDAdTZWF0dGxlMRAwDgYD
VQQKDAd3b2xmU1NMMRQwEgYDVQQLDAtFbmdpbmVlcmluZzEZMBcGA1UEAwwQd3d3
Mi53b2xmc3NsLmNvbTEfMB0GCSqGSIb3DQEJARYQaW5mb0B3b2xmc3NsLmNvbTCC
ASIwDQYJKoZIhvcNAQEBBQADggEPADCCAQoCggEBAMY1iuiqvTPJXoRDZ0JlKjzj
ibSmZ6E77m2F0dMrbrFi1PEiQ6DVt6V9tfVsCQZ8jO+Hr080zifr80o3V8PX2O7k
oHdlLKfCEGVre0jE2Cj+TE5Pfi8gxElbcThADTajV7NE2r7NVBQVZg/TBQjyLgNn
Llxd4bDmwCWPWHdb09eoIupW0w4BbTg0VkeqEsS6Ku/sGPXU27n6b9xQ6+4QohS1
mhLh44UPeRS4cG0NHB04V4VqggzWvSy/IPEoLvY0gKcNMoI1T8Gx5Z4m1fi5OVdD
7+3xEFw+MrrZ5J5AzSjqJkabqTSNn7n9RX0U987KO4WHp2R0nGUpGLP1sa2SYjkC
AwEAAaOCATYwggEyMAkGA1UdEwQCMAAwHQYDVR0OBBYEFH1t/fYLTz9KYpH18xNg
UYbDWp/WMIHEBgNVHSMEgbwwgbmAFIPGOoksgfQC151M4irAcYJkRNoOoYGdpIGa
MIGXMQswCQYDVQQGEwJVUzETMBEGA1UECAwKV2FzaGluZ3RvbjEQMA4GA1UEBwwH
U2VhdHRsZTEQMA4GA1UECgwHd29sZlNTTDEUMBIGA1UECwwLRW5naW5lZXJpbmcx
GDAWBgNVBAMMD3dvbGZTU0wgcm9vdCBDQTEfMB0GCSqGSIb3DQEJARYQaW5mb0B3
b2xmc3NsLmNvbYIBATALBgNVHQ8EBAMCBeAwMgYIKwYBBQUHAQEEJjAkMCIGCCsG
AQUFBzABhhZodHRwOi8vMTI3LjAuMC4xOjIyMjIxMA0GCSqGSIb3DQEBCwUAA4IB
AQDdthdRYoONMn8vIS8K6ms/8MlZnR5Lgn2qHW2o9cAgeKj9o8rLHyuZKJfSznFI
lYLu5KTZMnV/HbKXjVw8lpq5TAX+0a+BSiXFZqHzxw7zdts9ood+XMQK09OXoXxG
/JQs3Ap+obLyf8fL2XrC+o1bSnXA5NxXS4QqWoQ1E3sVSaDontgdkKSZTqTd/LrT
9RKqNvKHBLQJBG+UoRg+Rs6uVfQP2CbuEc/UjuUz2hfirUMFUOI4x9IVGCPw+s3M
s+nqAFqvKZBqaYy6yPeEhFcNgLEQLL2dM0Jt8VjVtGp55CaPQe+itYRrwm2+XnaP
KSUT6LrdqmQ+dLyQLaq7Gs3J
-----END CERTIFICATE-----
Certificate:
    Data:
        Version: 3 (0x2)
        Serial Number: 1 (0x1)
    Signature Algorithm: sha256WithRSAEncryption
        Issuer: C=US, ST=Washington, L=Seattle, O=wolfSSL, OU=Engineering, CN=wolfSSL root CA/emailAddress=info@wolfssl.com
        Validity
            Not Before: Dec 30 19:12:46 2015 GMT
            Not After : Sep 25 19:12:46 2018 GMT
        Subject: C=US, ST=Washington, L=Seattle, O=wolfSSL, OU=Engineering, CN=wolfSSL intermediate CA 1/emailAddress=info@wolfssl.com
        Subject Public Key Info:
            Public Key Algorithm: rsaEncryption
                Public-Key: (2048 bit)
                Modulus:
                    00:de:b4:c8:5c:77:e0:2d:b1:f5:b9:ad:16:47:35:
                    a0:35:65:65:c6:e1:40:ab:1e:b4:b9:13:b7:cb:8c:
                    bb:77:a5:76:da:6d:87:87:f6:4a:4d:13:e4:26:3e:
                    27:87:ee:5b:c7:6a:3f:45:30:61:55:5c:f6:35:d1:
                    65:fa:98:11:a3:a7:55:d5:be:91:82:4b:fc:be:90:
                    d6:50:53:63:9a:2c:22:e1:35:11:dc:78:02:97:8a:
                    e4:46:92:9c:53:08:76:de:1f:53:b6:b8:ca:77:3e:
                    79:6e:bc:d0:e3:0d:30:5b:4c:f6:94:0d:30:29:64:
                    9f:04:e5:db:fb:89:60:67:bb:af:26:83:51:77:24:
                    2f:2b:0b:a1:94:81:10:98:e8:eb:26:a8:1e:7c:e4:
                    c4:6c:67:06:95:55:4a:dd:52:f4:f2:60:6d:01:2b:
                    19:91:35:6d:a4:08:47:06:71:24:00:d9:de:c6:56:
                    f3:8b:53:2c:e2:9a:96:a5:f3:62:e5:c4:e3:23:f2:
                    d2:fc:21:ea:0f:62:76:8d:d5:99:48:ce:dc:58:c4:
                    bb:7f:da:94:2c:80:74:83:c5:e0:b0:15:7e:41:fd:
                    0e:f2:f4:f0:78:76:7b:ad:26:0d:aa:48:96:17:2f:
                    21:e3:95:2b:26:37:f9:aa:80:2f:fe:de:f6:5e:bc:
                    97:7f
                Exponent: 65537 (0x10001)
        X509v3 extensions:
            X509v3 Basic Constraints: 
                CA:TRUE
            X509v3 Subject Key Identifier: 
                83:C6:3A:89:2C:81:F4:02:D7:9D:4C:E2:2A:C0:71:82:64:44:DA:0E
            X509v3 Authority Key Identifier: 
                keyid:73:B0:1C:A4:2F:82:CB:CF:47:A5:38:D7:B0:04:82:3A:7E:72:15:21
                DirName:/C=US/ST=Washington/L=Seattle/O=wolfSSL/OU=Engineering/CN=wolfSSL root CA/emailAddress=info@wolfssl.com
                serial:63

            X509v3 Key Usage: 
                Certificate Sign, CRL Sign
            Authority Information Access: 
                OCSP - URI:http://127.0.0.1:22220

    Signature Algorithm: sha256WithRSAEncryption
         0f:a2:19:93:09:2f:c8:c5:91:62:2b:1e:9c:69:93:ea:5f:f1:
         5e:b8:15:8e:0f:c9:82:08:3a:6b:60:3f:ad:1b:fa:47:94:a7:
         31:33:34:6c:cf:09:63:fd:8c:de:62:c4:2e:5f:71:19:2e:a8:
         96:63:37:16:e7:bf:37:67:2d:46:36:72:d0:e4:03:a7:89:a1:
         e4:4c:2f:76:31:79:0d:84:ae:c8:61:cf:98:03:2f:12:fc:17:
         60:60:88:b0:96:a0:a8:59:f5:96:1d:3d:1e:e0:c0:26:fd:1b:
         3e:42:73:ad:1d:39:0f:ff:d9:f0:71:52:e3:9a:9b:7a:b4:a2:
         af:50:e7:33:7f:66:40:65:bd:31:0c:c9:21:b0:d1:3f:df:b6:
         77:e5:05:ca:24:b9:72:c9:82:c6:9f:be:12:f6:5d:39:34:b7:
         20:df:e1:24:c3:b2:fe:98:b6:d3:6c:3e:43:62:6b:e2:6d:56:
         65:99:3e:aa:2e:a8:cb:82:2d:9b:11:da:8a:b6:63:20:12:c7:
         a0:5b:5d:5b:09:29:47:50:ad:4e:1f:68:29:d2:d9:0e:5f:5c:
         83:e8:e6:fd:c7:e5:f9:14:0d:14:8e:6e:34:dd:4f:ec:01:75:
         54:2d:24:c8:c6:98:c3:7f:d8:1d:4f:c5:ae:e0:b2:8e:f5:a8:
         bb:4b:1f:aa
-----BEGIN CERTIFICATE-----
MIIE8DCCA9igAwIBAgIBATANBgkqhkiG9w0BAQsFADCBlzELMAkGA1UEBhMCVVMx
EzARBgNVBAgMCldhc2hpbmd0b24xEDAOBgNVBAcMB1NlYXR0bGUxEDAOBgNVBAoM
B3dvbGZTU0wxFDASBgNVBAsMC0VuZ2luZWVyaW5nMRgwFgYDVQQDDA93b2xmU1NM
IHJvb3QgQ0ExHzAdBgkqhkiG9w0BCQEWEGluZm9Ad29sZnNzbC5jb20wHhcNMTUx
MjMwMTkxMjQ2WhcNMTgwOTI1MTkxMjQ2WjCBoTELMAkGA1UEBhMCVVMxEzARBgNV
BAgMCldhc2hpbmd0b24xEDAOBgNVBAcMB1NlYXR0bGUxEDAOBgNVBAoMB3dvbGZT
U0wxFDASBgNVBAsMC0VuZ2luZWVyaW5nMSIwIAYDVQQDDBl3b2xmU1NMIGludGVy
bWVkaWF0ZSBDQSAxMR8wHQYJKoZIhvcNAQkBFhBpbmZvQHdvbGZzc2wuY29tMIIB
IjANBgkqhkiG9w0BAQEFAAOCAQ8AMIIBCgKCAQEA3rTIXHfgLbH1ua0WRzWgNWVl
xuFAqx60uRO3y4y7d6V22m2Hh/ZKTRPkJj4nh+5bx2o/RTBhVVz2NdFl+pgRo6dV
1b6Rgkv8vpDWUFNjmiwi4TUR3HgCl4rkRpKcUwh23h9TtrjKdz55brzQ4w0wW0z2
lA0wKWSfBOXb+4lgZ7uvJoNRdyQvKwuhlIEQmOjrJqgefOTEbGcGlVVK3VL08mBt
ASsZkTVtpAhHBnEkANnexlbzi1Ms4pqWpfNi5cTjI/LS/CHqD2J2jdWZSM7cWMS7
f9qULIB0g8XgsBV+Qf0O8vTweHZ7rSYNqkiWFy8h45UrJjf5qoAv/t72XryXfwID
AQABo4IBOTCCATUwDAYDVR0TBAUwAwEB/zAdBgNVHQ4EFgQUg8Y6iSyB9ALXnUzi
KsBxgmRE2g4wgcQGA1UdIwSBvDCBuYAUc7AcpC+Cy89HpTjXsASCOn5yFSGhgZ2k
gZowgZcxCzAJBgNVBAYTAlVTMRMwEQYDVQQIDApXYXNoaW5ndG9uMRAwDgYDVQQH
DAdTZWF0dGxlMRAwDgYDVQQKDAd3b2xmU1NMMRQwEgYDVQQLDAtFbmdpbmVlcmlu
ZzEYMBYGA1UEAwwPd29sZlNTTCByb290IENBMR8wHQYJKoZIhvcNAQkBFhBpbmZv
QHdvbGZzc2wuY29tggFjMAsGA1UdDwQEAwIBBjAyBggrBgEFBQcBAQQmMCQwIgYI
KwYBBQUHMAGGFmh0dHA6Ly8xMjcuMC4wLjE6MjIyMjAwDQYJKoZIhvcNAQELBQAD
ggEBAA+iGZMJL8jFkWIrHpxpk+pf8V64FY4PyYIIOmtgP60b+keUpzEzNGzPCWP9
jN5ixC5fcRkuqJZjNxbnvzdnLUY2ctDkA6eJoeRML3YxeQ2Ershhz5gDLxL8F2Bg
iLCWoKhZ9ZYdPR7gwCb9Gz5Cc60dOQ//2fBxUuOam3q0oq9Q5zN/ZkBlvTEMySGw
0T/ftnflBcokuXLJgsafvhL2XTk0tyDf4STDsv6YttNsPkNia+JtVmWZPqouqMuC
LZsR2oq2YyASx6BbXVsJKUdQrU4faCnS2Q5fXIPo5v3H5fkUDRSObjTdT+wBdVQt
JMjGmMN/2B1Pxa7gso71qLtLH6o=
-----END CERTIFICATE-----
Certificate:
    Data:
        Version: 3 (0x2)
        Serial Number: 99 (0x63)
    Signature Algorithm: sha256WithRSAEncryption
        Issuer: C=US, ST=Washington, L=Seattle, O=wolfSSL, OU=Engineering, CN=wolfSSL root CA/emailAddress=info@wolfssl.com
        Validity
            Not Before: Dec 30 19:12:46 2015 GMT
            Not After : Sep 25 19:12:46 2018 GMT
        Subject: C=US, ST=Washington, L=Seattle, O=wolfSSL, OU=Engineering, CN=wolfSSL root CA/emailAddress=info@wolfssl.com
        Subject Public Key Info:
            Public Key Algorithm: rsaEncryption
                Public-Key: (2048 bit)
                Modulus:
                    00:ab:2c:b4:2f:1d:06:09:ef:4e:29:86:84:7e:cc:
                    bf:a6:79:7c:f0:c0:c1:64:25:8c:75:b7:10:05:ca:
                    48:27:0c:0e:32:1c:b0:fe:99:85:39:b6:b9:a2:f7:
                    27:ff:6d:3c:8c:16:73:29:21:7f:8b:a6:54:71:90:
                    ad:cc:05:b9:9f:15:c7:0a:3f:5f:69:f4:0a:5f:8c:
                    71:b5:2c:bf:66:e2:03:9a:32:f4:d2:ec:2a:89:4b:
                    f9:35:88:14:33:47:4e:2e:05:79:01:ed:64:36:76:
                    b9:f8:85:cd:01:88:ac:c5:b2:b1:59:b8:cd:5a:f4:
                    09:09:38:9b:da:5a:cf:ce:78:99:1f:49:3d:41:d6:
                    06:7c:52:99:c8:97:d1:b3:80:3a:a2:4f:36:c4:c5:
                    96:30:77:31:38:c8:70:cc:e1:67:06:b3:2b:2f:93:
                    b5:69:cf:83:7e:88:53:9b:0f:46:21:4c:d6:05:36:
                    44:99:60:68:47:e5:32:01:12:d4:10:73:ae:9a:34:
                    94:fa:6e:b8:58:4f:7b:5b:8a:92:97:ad:fd:97:b9:
                    75:ca:c2:d4:45:7d:17:6b:cd:2f:f3:63:7a:0e:30:
                    b5:0b:a9:d9:a6:7c:74:60:9d:cc:09:03:43:f1:0f:
                    90:d3:b7:fe:6c:9f:d9:cd:78:4b:15:ae:8c:5b:f9:
                    99:81
                Exponent: 65537 (0x10001)
        X509v3 extensions:
            X509v3 Basic Constraints: 
                CA:TRUE
            X509v3 Subject Key Identifier: 
                73:B0:1C:A4:2F:82:CB:CF:47:A5:38:D7:B0:04:82:3A:7E:72:15:21
            X509v3 Authority Key Identifier: 
                keyid:73:B0:1C:A4:2F:82:CB:CF:47:A5:38:D7:B0:04:82:3A:7E:72:15:21
                DirName:/C=US/ST=Washington/L=Seattle/O=wolfSSL/OU=Engineering/CN=wolfSSL root CA/emailAddress=info@wolfssl.com
                serial:63

            X509v3 Key Usage: 
                Certificate Sign, CRL Sign
            Authority Information Access: 
                OCSP - URI:http://127.0.0.1:22220

    Signature Algorithm: sha256WithRSAEncryption
         99:a3:7d:72:17:b7:c0:cd:98:bb:55:fa:f2:ea:9f:17:81:6e:
         8e:02:25:c6:4d:42:cd:32:64:13:f4:bf:42:0c:a6:4e:39:45:
         52:92:40:ed:16:78:17:a2:45:5e:d9:19:ac:1d:d4:56:68:c8:
         55:de:65:ae:ba:72:b0:c0:57:52:5e:5b:08:d9:dd:72:ca:18:
         6e:16:61:32:9a:8b:c0:7d:3e:5a:27:bc:2d:81:aa:36:d4:44:
         26:52:07:f2:41:3b:d1:0f:2e:64:2e:a7:f8:0f:c3:0e:d3:9d:
         73:b9:24:12:e8:ca:28:db:4f:48:c2:43:bb:b7:a8:14:be:8d:
         3a:2f:d3:3a:1a:eb:5f:15:61:e3:e8:03:65:88:d5:03:7e:25:
         7a:35:8d:45:17:3f:0d:10:fd:8e:27:31:65:ee:de:9d:5c:68:
         7f:68:95:bc:85:5a:fa:2a:10:37:82:ca:11:84:9b:90:1e:23:
         d6:2b:a6:c5:af:89:ef:31:37:56:0a:91:9e:0f:5b:3e:6c:c1:
         7d:29:cd:bb:38:3f:0e:cb:fb:05:04:e6:4f:5c:6a:c5:b6:a4:
         0f:0b:6a:25:bf:e9:ed:82:19:bb:6b:9a:2e:7d:40:58:0b:45:
         0e:ff:c2:73:39:9c:c2:ef:f4:7c:d0:9e:ae:c9:05:e1:e3:5e:
         bf:dd:65:6d
-----BEGIN CERTIFICATE-----
MIIE5jCCA86gAwIBAgIBYzANBgkqhkiG9w0BAQsFADCBlzELMAkGA1UEBhMCVVMx
EzARBgNVBAgMCldhc2hpbmd0b24xEDAOBgNVBAcMB1NlYXR0bGUxEDAOBgNVBAoM
B3dvbGZTU0wxFDASBgNVBAsMC0VuZ2luZWVyaW5nMRgwFgYDVQQDDA93b2xmU1NM
IHJvb3QgQ0ExHzAdBgkqhkiG9w0BCQEWEGluZm9Ad29sZnNzbC5jb20wHhcNMTUx
MjMwMTkxMjQ2WhcNMTgwOTI1MTkxMjQ2WjCBlzELMAkGA1UEBhMCVVMxEzARBgNV
BAgMCldhc2hpbmd0b24xEDAOBgNVBAcMB1NlYXR0bGUxEDAOBgNVBAoMB3dvbGZT
U0wxFDASBgNVBAsMC0VuZ2luZWVyaW5nMRgwFgYDVQQDDA93b2xmU1NMIHJvb3Qg
Q0ExHzAdBgkqhkiG9w0BCQEWEGluZm9Ad29sZnNzbC5jb20wggEiMA0GCSqGSIb3
DQEBAQUAA4IBDwAwggEKAoIBAQCrLLQvHQYJ704phoR+zL+meXzwwMFkJYx1txAF
ykgnDA4yHLD+mYU5trmi9yf/bTyMFnMpIX+LplRxkK3MBbmfFccKP19p9ApfjHG1
LL9m4gOaMvTS7CqJS/k1iBQzR04uBXkB7WQ2drn4hc0BiKzFsrFZuM1a9AkJOJva
Ws/OeJkfST1B1gZ8UpnIl9GzgDqiTzbExZYwdzE4yHDM4WcGsysvk7Vpz4N+iFOb
D0YhTNYFNkSZYGhH5TIBEtQQc66aNJT6brhYT3tbipKXrf2XuXXKwtRFfRdrzS/z
Y3oOMLULqdmmfHRgncwJA0PxD5DTt/5sn9nNeEsVroxb+ZmBAgMBAAGjggE5MIIB
NTAMBgNVHRMEBTADAQH/MB0GA1UdDgQWBBRzsBykL4LLz0elONewBII6fnIVITCB
xAYDVR0jBIG8MIG5gBRzsBykL4LLz0elONewBII6fnIVIaGBnaSBmjCBlzELMAkG
A1UEBhMCVVMxEzARBgNVBAgMCldhc2hpbmd0b24xEDAOBgNVBAcMB1NlYXR0bGUx
EDAOBgNVBAoMB3dvbGZTU0wxFDASBgNVBAsMC0VuZ2luZWVyaW5nMRgwFgYDVQQD
DA93b2xmU1NMIHJvb3QgQ0ExHzAdBgkqhkiG9w0BCQEWEGluZm9Ad29sZnNzbC5j
b22CAWMwCwYDVR0PBAQDAgEGMDIGCCsGAQUFBwEBBCYwJDAiBggrBgEFBQcwAYYW
aHR0cDovLzEyNy4wLjAuMToyMjIyMDANBgkqhkiG9w0BAQsFAAOCAQEAmaN9che3
wM2Yu1X68uqfF4FujgIlxk1CzTJkE/S/QgymTjlFUpJA7RZ4F6JFXtkZrB3UVmjI
Vd5lrrpysMBXUl5bCNndcsoYbhZhMpqLwH0+Wie8LYGqNtREJlIH8kE70Q8uZC6n
+A/DDtOdc7kkEujKKNtPSMJDu7eoFL6NOi/TOhrrXxVh4+gDZYjVA34lejWNRRc/
DRD9jicxZe7enVxof2iVvIVa+ioQN4LKEYSbkB4j1iumxa+J7zE3VgqRng9bPmzB
fSnNuzg/Dsv7BQTmT1xqxbakDwtqJb/p7YIZu2uaLn1AWAtFDv/Cczmcwu/0fNCe
rskF4eNev91lbQ==
-----END CERTIFICATE-----
