Certificate:
    Data:
        Version: 3 (0x2)
        Serial Number: 9 (0x9)
    Signature Algorithm: sha256WithRSAEncryption
        Issuer: C=US, ST=Washington, L=Seattle, O=wolfSSL, OU=Engineering, CN=wolfSSL REVOKED intermediate CA/emailAddress=info@wolfssl.com
        Validity
            Not Before: Dec 30 19:12:47 2015 GMT
            Not After : Sep 25 19:12:47 2018 GMT
        Subject: C=US, ST=Washington, L=Seattle, O=wolfSSL, OU=Engineering, CN=www5.wolfssl.com/emailAddress=info@wolfssl.com
        Subject Public Key Info:
            Public Key Algorithm: rsaEncryption
                Public-Key: (2048 bit)
                Modulus:
                    00:ac:73:6d:e9:fa:8c:36:72:3e:89:3b:52:29:bd:
                    14:70:a2:00:b4:08:58:b6:c6:c0:bf:80:6a:1f:a5:
                    f0:15:fc:f4:19:a2:67:f9:6a:5d:22:69:2e:9c:29:
                    53:1e:5a:4a:d1:27:d5:b8:3b:65:37:8a:a2:eb:1b:
                    d4:5d:90:11:35:11:af:e3:d1:8c:24:5b:b5:90:c0:
                    bf:de:cb:7a:05:71:1b:ef:76:d7:9d:43:47:85:dc:
                    24:b8:b8:54:fc:53:bf:c3:fd:e1:12:c6:fc:1b:6f:
                    95:aa:cf:bb:8e:22:af:83:bd:4e:6b:66:fe:7e:7e:
                    98:6f:b1:b9:fc:f9:8a:8a:18:92:9a:4c:27:5d:78:
                    6b:e9:d0:14:1c:ed:69:6d:29:4c:4e:52:e6:92:24:
                    53:b0:2e:c3:a4:94:8f:20:1c:29:5c:97:70:1a:32:
                    85:90:71:f7:d7:a5:99:4f:48:c7:3d:fc:3d:a7:e1:
                    f9:96:ea:c1:6b:ea:31:e0:9b:fb:68:3e:4b:ad:a4:
                    2b:06:90:c2:b4:27:ea:f3:a3:3e:6e:32:75:aa:70:
                    6a:e3:33:29:fb:42:09:94:79:a5:eb:3c:4e:89:02:
                    77:08:fd:da:ba:fc:14:c6:8e:c1:5e:db:6d:d0:07:
                    4f:02:79:60:e7:95:c3:c8:f4:54:83:21:12:79:03:
                    7f:e1
                Exponent: 65537 (0x10001)
        X509v3 extensions:
            X509v3 Basic Constraints: 
                CA:FALSE
            X509v3 Subject Key Identifier: 
                2A:48:B6:8B:00:F0:4B:35:73:94:07:87:52:A3:69:5E:E6:D8:42:87
            X509v3 Authority Key Identifier: 
                keyid:BB:15:9E:32:4D:E0:F8:AA:8A:B0:2E:0C:17:2B:5A:41:74:4B:06:45
                DirName:/C=US/ST=Washington/L=Seattle/O=wolfSSL/OU=Engineering/CN=wolfSSL root CA/emailAddress=info@wolfssl.com
                serial:03

            X509v3 Key Usage: 
                Digital Signature, Non Repudiation, Key Encipherment
            Authority Information Access: 
                OCSP - URI:http://127.0.0.1:22223

    Signature Algorithm: sha256WithRSAEncryption
         79:1c:0f:7c:7d:e5:3d:ec:60:00:c9:a4:d6:f1:67:32:66:57:
         0a:8a:97:af:a6:53:92:c4:4d:cb:a7:3d:24:24:74:19:fb:9c:
         d0:25:90:00:ba:32:e2:b2:a8:aa:61:eb:f8:7c:ca:52:5f:8c:
         ef:e8:9a:d1:9d:73:a7:6e:72:04:0a:6f:d0:b3:88:de:8d:50:
         c5:da:fc:e7:81:f8:12:b0:12:4a:a2:54:84:50:87:2d:ee:08:
         33:dc:2f:ae:2a:ce:57:5e:1d:57:8c:ce:90:4d:9a:a7:4e:cd:
         33:4c:f8:47:5d:9f:68:c3:2c:ed:84:b3:b6:ea:dd:1a:f4:ba:
         9d:fa:b9:a1:df:82:4a:ed:fc:3f:8c:bf:c5:5a:ab:81:93:6b:
         a1:65:05:be:00:7b:6c:81:f9:2c:a7:92:60:80:70:de:8d:65:
         c7:fa:51:e7:b8:02:de:c0:4d:d8:88:6f:41:18:7a:6f:f4:eb:
         e1:7a:ab:f2:0d:e8:f9:9c:c4:64:fc:e8:d6:e2:c2:79:95:b1:
         0a:89:73:e6:4e:bf:35:3f:0b:9f:0c:d5:98:01:15:fe:fb:a3:
         0f:1a:75:21:10:0b:32:16:a9:4e:72:d1:de:1e:a6:df:9d:b3:
         bd:2a:14:67:e0:8d:4e:a2:9d:ae:f4:08:97:a5:f7:df:fa:e1:
         00:50:1f:f7
-----BEGIN CERTIFICATE-----
MIIE9DCCA9ygAwIBAgIBCTANBgkqhkiG9w0BAQsFADCBpzELMAkGA1UEBhMCVVMx
EzARBgNVBAgMCldhc2hpbmd0b24xEDAOBgNVBAcMB1NlYXR0bGUxEDAOBgNVBAoM
B3dvbGZTU0wxFDASBgNVBAsMC0VuZ2luZWVyaW5nMSgwJgYDVQQDDB93b2xmU1NM
IFJFVk9LRUQgaW50ZXJtZWRpYXRlIENBMR8wHQYJKoZIhvcNAQkBFhBpbmZvQHdv
bGZzc2wuY29tMB4XDTE1MTIzMDE5MTI0N1oXDTE4MDkyNTE5MTI0N1owgZgxCzAJ
BgNVBAYTAlVTMRMwEQYDVQQIDApXYXNoaW5ndG9uMRAwDgYDVQQHDAdTZWF0dGxl
MRAwDgYDVQQKDAd3b2xmU1NMMRQwEgYDVQQLDAtFbmdpbmVlcmluZzEZMBcGA1UE
AwwQd3d3NS53b2xmc3NsLmNvbTEfMB0GCSqGSIb3DQEJARYQaW5mb0B3b2xmc3Ns
LmNvbTCCASIwDQYJKoZIhvcNAQEBBQADggEPADCCAQoCggEBAKxzben6jDZyPok7
Uim9FHCiALQIWLbGwL+Aah+l8BX89BmiZ/lqXSJpLpwpUx5aStEn1bg7ZTeKousb
1F2QETURr+PRjCRbtZDAv97LegVxG+92151DR4XcJLi4VPxTv8P94RLG/BtvlarP
u44ir4O9Tmtm/n5+mG+xufz5iooYkppMJ114a+nQFBztaW0pTE5S5pIkU7Auw6SU
jyAcKVyXcBoyhZBx99elmU9Ixz38Pafh+ZbqwWvqMeCb+2g+S62kKwaQwrQn6vOj
Pm4ydapwauMzKftCCZR5pes8TokCdwj92rr8FMaOwV7bbdAHTwJ5YOeVw8j0VIMh
EnkDf+ECAwEAAaOCATYwggEyMAkGA1UdEwQCMAAwHQYDVR0OBBYEFCpItosA8Es1
c5QHh1KjaV7m2EKHMIHEBgNVHSMEgbwwgbmAFLsVnjJN4PiqirAuDBcrWkF0SwZF
oYGdpIGaMIGXMQswCQYDVQQGEwJVUzETMBEGA1UECAwKV2FzaGluZ3RvbjEQMA4G
A1UEBwwHU2VhdHRsZTEQMA4GA1UECgwHd29sZlNTTDEUMBIGA1UECwwLRW5naW5l
ZXJpbmcxGDAWBgNVBAMMD3dvbGZTU0wgcm9vdCBDQTEfMB0GCSqGSIb3DQEJARYQ
aW5mb0B3b2xmc3NsLmNvbYIBAzALBgNVHQ8EBAMCBeAwMgYIKwYBBQUHAQEEJjAk
MCIGCCsGAQUFBzABhhZodHRwOi8vMTI3LjAuMC4xOjIyMjIzMA0GCSqGSIb3DQEB
CwUAA4IBAQB5HA98feU97GAAyaTW8WcyZlcKipevplOSxE3Lpz0kJHQZ+5zQJZAA
ujLisqiqYev4fMpSX4zv6JrRnXOnbnIECm/Qs4jejVDF2vzngfgSsBJKolSEUIct
7ggz3C+uKs5XXh1XjM6QTZqnTs0zTPhHXZ9owyzthLO26t0a9Lqd+rmh34JK7fw/
jL/FWquBk2uhZQW+AHtsgfksp5JggHDejWXH+lHnuALewE3YiG9BGHpv9Ovheqvy
Dej5nMRk/OjW4sJ5lbEKiXPmTr81PwufDNWYARX++6MPGnUhEAsyFqlOctHeHqbf
nbO9KhRn4I1Oop2u9AiXpfff+uEAUB/3
-----END CERTIFICATE-----
Certificate:
    Data:
        Version: 3 (0x2)
        Serial Number: 3 (0x3)
    Signature Algorithm: sha256WithRSAEncryption
        Issuer: C=US, ST=Washington, L=Seattle, O=wolfSSL, OU=Engineering, CN=wolfSSL root CA/emailAddress=info@wolfssl.com
        Validity
            Not Before: Dec 30 19:12:46 2015 GMT
            Not After : Sep 25 19:12:46 2018 GMT
        Subject: C=US, ST=Washington, L=Seattle, O=wolfSSL, OU=Engineering, CN=wolfSSL REVOKED intermediate CA/emailAddress=info@wolfssl.com
        Subject Public Key Info:
            Public Key Algorithm: rsaEncryption
                Public-Key: (2048 bit)
                Modulus:
                    00:de:c5:04:10:7d:c2:21:e9:12:45:da:d5:ba:28:
                    fd:a6:f4:30:44:a0:df:f9:70:5e:17:26:97:59:5c:
                    31:eb:13:70:ea:4a:dd:58:3e:4f:33:14:66:59:69:
                    7a:aa:90:e0:7c:c4:b2:36:c1:0a:f4:df:3e:34:6c:
                    1a:e9:2b:f1:a5:92:7e:a9:68:70:ba:a4:68:88:f3:
                    ec:10:40:64:a5:64:7d:d9:1e:51:49:9d:7f:c8:cc:
                    2b:6d:71:2a:06:ff:e6:1f:84:28:8a:c1:ed:a8:52:
                    f4:89:a5:c0:77:d8:13:66:c2:65:a5:63:03:98:b0:
                    4b:05:4f:0c:84:a0:f4:2d:72:73:6b:fa:0d:e1:cf:
                    45:27:ed:a3:8c:02:d7:ee:99:e2:a1:f0:e3:a0:ad:
                    69:ed:59:e4:27:41:8f:ef:fa:83:73:8f:5f:2b:68:
                    89:13:46:26:dc:f6:28:6b:3b:b2:b8:9b:52:2a:17:
                    1b:dc:72:45:73:da:75:24:35:8b:00:5e:23:37:64:
                    6a:16:74:b8:ee:fe:b7:11:71:be:0a:73:c8:54:c2:
                    d9:04:d2:1b:f5:53:ac:8d:2a:4f:fe:33:79:e6:5e:
                    e7:f3:86:d3:dc:bb:4b:d7:39:7f:5b:3c:67:fe:5e:
                    88:51:05:96:f2:b4:9a:45:09:4c:51:f0:6a:4d:88:
                    2a:17
                Exponent: 65537 (0x10001)
        X509v3 extensions:
            X509v3 Basic Constraints: 
                CA:TRUE
            X509v3 Subject Key Identifier: 
                BB:15:9E:32:4D:E0:F8:AA:8A:B0:2E:0C:17:2B:5A:41:74:4B:06:45
            X509v3 Authority Key Identifier: 
                keyid:73:B0:1C:A4:2F:82:CB:CF:47:A5:38:D7:B0:04:82:3A:7E:72:15:21
                DirName:/C=US/ST=Washington/L=Seattle/O=wolfSSL/OU=Engineering/CN=wolfSSL root CA/emailAddress=info@wolfssl.com
                serial:63

            X509v3 Key Usage: 
                Certificate Sign, CRL Sign
            Authority Information Access: 
                OCSP - URI:http://127.0.0.1:22220

    Signature Algorithm: sha256WithRSAEncryption
         9a:47:17:70:ff:92:e7:b5:51:a0:d2:5d:f3:e3:dd:90:ec:c9:
         8f:ad:61:74:30:ba:d9:60:ba:5b:cf:da:03:4f:c8:50:5a:f4:
         5e:e0:e3:a0:ce:de:43:6c:56:e0:bc:35:e9:0d:bb:53:0e:22:
         7f:21:42:6c:2a:0f:67:b2:8a:1a:f5:e8:1f:a9:a1:90:11:d0:
         ec:18:90:ba:ee:cf:d4:18:28:1b:9c:96:8e:d6:48:bd:6f:66:
         79:df:04:0d:04:d3:13:69:b8:24:15:7c:3b:bc:b9:fc:1d:dd:
         cc:45:a5:c1:04:c9:d3:68:a7:de:cd:1e:aa:cc:bd:3d:f4:12:
         eb:3d:01:44:11:fd:1d:bd:a0:7a:4c:24:f2:39:78:17:c1:1f:
         8c:b8:ab:01:f3:98:88:ff:bd:2c:1b:43:bb:fe:37:94:65:b4:
         3c:e6:11:8c:5d:36:de:ab:84:a5:6d:30:23:dc:ad:b1:74:24:
         2a:bb:49:f0:37:ef:db:9a:eb:4e:fc:f9:a2:47:06:3a:09:9d:
         4f:c3:c6:dc:18:90:47:42:f4:bc:8d:75:be:7c:c8:d5:47:a6:
         bb:c2:1e:55:16:8f:a4:62:cc:1f:7c:cf:5a:b5:41:6d:98:f4:
         15:b9:fc:5a:3e:47:75:a0:f7:b0:df:33:54:a9:7c:f0:da:3c:
         65:c2:e6:1a
-----BEGIN CERTIFICATE-----
MIIE9jCCA96gAwIBAgIBAzANBgkqhkiG9w0BAQsFADCBlzELMAkGA1UEBhMCVVMx
EzARBgNVBAgMCldhc2hpbmd0b24xEDAOBgNVBAcMB1NlYXR0bGUxEDAOBgNVBAoM
B3dvbGZTU0wxFDASBgNVBAsMC0VuZ2luZWVyaW5nMRgwFgYDVQQDDA93b2xmU1NM
IHJvb3QgQ0ExHzAdBgkqhkiG9w0BCQEWEGluZm9Ad29sZnNzbC5jb20wHhcNMTUx
MjMwMTkxMjQ2WhcNMTgwOTI1MTkxMjQ2WjCBpzELMAkGA1UEBhMCVVMxEzARBgNV
BAgMCldhc2hpbmd0b24xEDAOBgNVBAcMB1NlYXR0bGUxEDAOBgNVBAoMB3dvbGZT
U0wxFDASBgNVBAsMC0VuZ2luZWVyaW5nMSgwJgYDVQQDDB93b2xmU1NMIFJFVk9L
RUQgaW50ZXJtZWRpYXRlIENBMR8wHQYJKoZIhvcNAQkBFhBpbmZvQHdvbGZzc2wu
Y29tMIIBIjANBgkqhkiG9w0BAQEFAAOCAQ8AMIIBCgKCAQEA3sUEEH3CIekSRdrV
uij9pvQwRKDf+XBeFyaXWVwx6xNw6krdWD5PMxRmWWl6qpDgfMSyNsEK9N8+NGwa
6SvxpZJ+qWhwuqRoiPPsEEBkpWR92R5RSZ1/yMwrbXEqBv/mH4QoisHtqFL0iaXA
d9gTZsJlpWMDmLBLBU8MhKD0LXJza/oN4c9FJ+2jjALX7pniofDjoK1p7VnkJ0GP
7/qDc49fK2iJE0Ym3PYoazuyuJtSKhcb3HJFc9p1JDWLAF4jN2RqFnS47v63EXG+
CnPIVMLZBNIb9VOsjSpP/jN55l7n84bT3LtL1zl/Wzxn/l6IUQWW8rSaRQlMUfBq
TYgqFwIDAQABo4IBOTCCATUwDAYDVR0TBAUwAwEB/zAdBgNVHQ4EFgQUuxWeMk3g
+KqKsC4MFytaQXRLBkUwgcQGA1UdIwSBvDCBuYAUc7AcpC+Cy89HpTjXsASCOn5y
FSGhgZ2kgZowgZcxCzAJBgNVBAYTAlVTMRMwEQYDVQQIDApXYXNoaW5ndG9uMRAw
DgYDVQQHDAdTZWF0dGxlMRAwDgYDVQQKDAd3b2xmU1NMMRQwEgYDVQQLDAtFbmdp
bmVlcmluZzEYMBYGA1UEAwwPd29sZlNTTCByb290IENBMR8wHQYJKoZIhvcNAQkB
FhBpbmZvQHdvbGZzc2wuY29tggFjMAsGA1UdDwQEAwIBBjAyBggrBgEFBQcBAQQm
MCQwIgYIKwYBBQUHMAGGFmh0dHA6Ly8xMjcuMC4wLjE6MjIyMjAwDQYJKoZIhvcN
AQELBQADggEBAJpHF3D/kue1UaDSXfPj3ZDsyY+tYXQwutlgulvP2gNPyFBa9F7g
46DO3kNsVuC8NekNu1MOIn8hQmwqD2eyihr16B+poZAR0OwYkLruz9QYKBuclo7W
SL1vZnnfBA0E0xNpuCQVfDu8ufwd3cxFpcEEydNop97NHqrMvT30Eus9AUQR/R29
oHpMJPI5eBfBH4y4qwHzmIj/vSwbQ7v+N5RltDzmEYxdNt6rhKVtMCPcrbF0JCq7
SfA379ua6078+aJHBjoJnU/DxtwYkEdC9LyNdb58yNVHprvCHlUWj6RizB98z1q1
QW2Y9BW5/Fo+R3Wg97DfM1SpfPDaPGXC5ho=
-----END CERTIFICATE-----
Certificate:
    Data:
        Version: 3 (0x2)
        Serial Number: 99 (0x63)
    Signature Algorithm: sha256WithRSAEncryption
        Issuer: C=US, ST=Washington, L=Seattle, O=wolfSSL, OU=Engineering, CN=wolfSSL root CA/emailAddress=info@wolfssl.com
        Validity
            Not Before: Dec 30 19:12:46 2015 GMT
            Not After : Sep 25 19:12:46 2018 GMT
        Subject: C=US, ST=Washington, L=Seattle, O=wolfSSL, OU=Engineering, CN=wolfSSL root CA/emailAddress=info@wolfssl.com
        Subject Public Key Info:
            Public Key Algorithm: rsaEncryption
                Public-Key: (2048 bit)
                Modulus:
                    00:ab:2c:b4:2f:1d:06:09:ef:4e:29:86:84:7e:cc:
                    bf:a6:79:7c:f0:c0:c1:64:25:8c:75:b7:10:05:ca:
                    48:27:0c:0e:32:1c:b0:fe:99:85:39:b6:b9:a2:f7:
                    27:ff:6d:3c:8c:16:73:29:21:7f:8b:a6:54:71:90:
                    ad:cc:05:b9:9f:15:c7:0a:3f:5f:69:f4:0a:5f:8c:
                    71:b5:2c:bf:66:e2:03:9a:32:f4:d2:ec:2a:89:4b:
                    f9:35:88:14:33:47:4e:2e:05:79:01:ed:64:36:76:
                    b9:f8:85:cd:01:88:ac:c5:b2:b1:59:b8:cd:5a:f4:
                    09:09:38:9b:da:5a:cf:ce:78:99:1f:49:3d:41:d6:
                    06:7c:52:99:c8:97:d1:b3:80:3a:a2:4f:36:c4:c5:
                    96:30:77:31:38:c8:70:cc:e1:67:06:b3:2b:2f:93:
                    b5:69:cf:83:7e:88:53:9b:0f:46:21:4c:d6:05:36:
                    44:99:60:68:47:e5:32:01:12:d4:10:73:ae:9a:34:
                    94:fa:6e:b8:58:4f:7b:5b:8a:92:97:ad:fd:97:b9:
                    75:ca:c2:d4:45:7d:17:6b:cd:2f:f3:63:7a:0e:30:
                    b5:0b:a9:d9:a6:7c:74:60:9d:cc:09:03:43:f1:0f:
                    90:d3:b7:fe:6c:9f:d9:cd:78:4b:15:ae:8c:5b:f9:
                    99:81
                Exponent: 65537 (0x10001)
        X509v3 extensions:
            X509v3 Basic Constraints: 
                CA:TRUE
            X509v3 Subject Key Identifier: 
                73:B0:1C:A4:2F:82:CB:CF:47:A5:38:D7:B0:04:82:3A:7E:72:15:21
            X509v3 Authority Key Identifier: 
                keyid:73:B0:1C:A4:2F:82:CB:CF:47:A5:38:D7:B0:04:82:3A:7E:72:15:21
                DirName:/C=US/ST=Washington/L=Seattle/O=wolfSSL/OU=Engineering/CN=wolfSSL root CA/emailAddress=info@wolfssl.com
                serial:63

            X509v3 Key Usage: 
                Certificate Sign, CRL Sign
            Authority Information Access: 
                OCSP - URI:http://127.0.0.1:22220

    Signature Algorithm: sha256WithRSAEncryption
         99:a3:7d:72:17:b7:c0:cd:98:bb:55:fa:f2:ea:9f:17:81:6e:
         8e:02:25:c6:4d:42:cd:32:64:13:f4:bf:42:0c:a6:4e:39:45:
         52:92:40:ed:16:78:17:a2:45:5e:d9:19:ac:1d:d4:56:68:c8:
         55:de:65:ae:ba:72:b0:c0:57:52:5e:5b:08:d9:dd:72:ca:18:
         6e:16:61:32:9a:8b:c0:7d:3e:5a:27:bc:2d:81:aa:36:d4:44:
         26:52:07:f2:41:3b:d1:0f:2e:64:2e:a7:f8:0f:c3:0e:d3:9d:
         73:b9:24:12:e8:ca:28:db:4f:48:c2:43:bb:b7:a8:14:be:8d:
         3a:2f:d3:3a:1a:eb:5f:15:61:e3:e8:03:65:88:d5:03:7e:25:
         7a:35:8d:45:17:3f:0d:10:fd:8e:27:31:65:ee:de:9d:5c:68:
         7f:68:95:bc:85:5a:fa:2a:10:37:82:ca:11:84:9b:90:1e:23:
         d6:2b:a6:c5:af:89:ef:31:37:56:0a:91:9e:0f:5b:3e:6c:c1:
         7d:29:cd:bb:38:3f:0e:cb:fb:05:04:e6:4f:5c:6a:c5:b6:a4:
         0f:0b:6a:25:bf:e9:ed:82:19:bb:6b:9a:2e:7d:40:58:0b:45:
         0e:ff:c2:73:39:9c:c2:ef:f4:7c:d0:9e:ae:c9:05:e1:e3:5e:
         bf:dd:65:6d
-----BEGIN CERTIFICATE-----
MIIE5jCCA86gAwIBAgIBYzANBgkqhkiG9w0BAQsFADCBlzELMAkGA1UEBhMCVVMx
EzARBgNVBAgMCldhc2hpbmd0b24xEDAOBgNVBAcMB1NlYXR0bGUxEDAOBgNVBAoM
B3dvbGZTU0wxFDASBgNVBAsMC0VuZ2luZWVyaW5nMRgwFgYDVQQDDA93b2xmU1NM
IHJvb3QgQ0ExHzAdBgkqhkiG9w0BCQEWEGluZm9Ad29sZnNzbC5jb20wHhcNMTUx
MjMwMTkxMjQ2WhcNMTgwOTI1MTkxMjQ2WjCBlzELMAkGA1UEBhMCVVMxEzARBgNV
BAgMCldhc2hpbmd0b24xEDAOBgNVBAcMB1NlYXR0bGUxEDAOBgNVBAoMB3dvbGZT
U0wxFDASBgNVBAsMC0VuZ2luZWVyaW5nMRgwFgYDVQQDDA93b2xmU1NMIHJvb3Qg
Q0ExHzAdBgkqhkiG9w0BCQEWEGluZm9Ad29sZnNzbC5jb20wggEiMA0GCSqGSIb3
DQEBAQUAA4IBDwAwggEKAoIBAQCrLLQvHQYJ704phoR+zL+meXzwwMFkJYx1txAF
ykgnDA4yHLD+mYU5trmi9yf/bTyMFnMpIX+LplRxkK3MBbmfFccKP19p9ApfjHG1
LL9m4gOaMvTS7CqJS/k1iBQzR04uBXkB7WQ2drn4hc0BiKzFsrFZuM1a9AkJOJva
Ws/OeJkfST1B1gZ8UpnIl9GzgDqiTzbExZYwdzE4yHDM4WcGsysvk7Vpz4N+iFOb
D0YhTNYFNkSZYGhH5TIBEtQQc66aNJT6brhYT3tbipKXrf2XuXXKwtRFfRdrzS/z
Y3oOMLULqdmmfHRgncwJA0PxD5DTt/5sn9nNeEsVroxb+ZmBAgMBAAGjggE5MIIB
NTAMBgNVHRMEBTADAQH/MB0GA1UdDgQWBBRzsBykL4LLz0elONewBII6fnIVITCB
xAYDVR0jBIG8MIG5gBRzsBykL4LLz0elONewBII6fnIVIaGBnaSBmjCBlzELMAkG
A1UEBhMCVVMxEzARBgNVBAgMCldhc2hpbmd0b24xEDAOBgNVBAcMB1NlYXR0bGUx
EDAOBgNVBAoMB3dvbGZTU0wxFDASBgNVBAsMC0VuZ2luZWVyaW5nMRgwFgYDVQQD
DA93b2xmU1NMIHJvb3QgQ0ExHzAdBgkqhkiG9w0BCQEWEGluZm9Ad29sZnNzbC5j
b22CAWMwCwYDVR0PBAQDAgEGMDIGCCsGAQUFBwEBBCYwJDAiBggrBgEFBQcwAYYW
aHR0cDovLzEyNy4wLjAuMToyMjIyMDANBgkqhkiG9w0BAQsFAAOCAQEAmaN9che3
wM2Yu1X68uqfF4FujgIlxk1CzTJkE/S/QgymTjlFUpJA7RZ4F6JFXtkZrB3UVmjI
Vd5lrrpysMBXUl5bCNndcsoYbhZhMpqLwH0+Wie8LYGqNtREJlIH8kE70Q8uZC6n
+A/DDtOdc7kkEujKKNtPSMJDu7eoFL6NOi/TOhrrXxVh4+gDZYjVA34lejWNRRc/
DRD9jicxZe7enVxof2iVvIVa+ioQN4LKEYSbkB4j1iumxa+J7zE3VgqRng9bPmzB
fSnNuzg/Dsv7BQTmT1xqxbakDwtqJb/p7YIZu2uaLn1AWAtFDv/Cczmcwu/0fNCe
rskF4eNev91lbQ==
-----END CERTIFICATE-----
