Certificate:
    Data:
        Version: 3 (0x2)
        Serial Number: 107 (0x6b)
    Signature Algorithm: sha1WithRSAEncryption
        Issuer: C=US, ST=Washington, L=Seattle, O=wolfSSL Inc., OU=Engineering, CN=Server 127 CA/emailAddress=info@wolfssl.com
        Validity
            Not Before: Sep 20 00:09:11 2016 GMT
            Not After : Jun 17 00:09:11 2019 GMT
        Subject: C=US, ST=Washington, L=Seattle, O=wolfSSL Inc., OU=Engineering, CN=Server 127/emailAddress=info@wolfssl.com
        Subject Public Key Info:
            Public Key Algorithm: rsaEncryption
                Public-Key: (2048 bit)
                Modulus:
                    00:c0:95:08:e1:57:41:f2:71:6d:b7:d2:45:41:27:
                    01:65:c6:45:ae:f2:bc:24:30:b8:95:ce:2f:4e:d6:
                    f6:1c:88:bc:7c:9f:fb:a8:67:7f:fe:5c:9c:51:75:
                    f7:8a:ca:07:e7:35:2f:8f:e1:bd:7b:c0:2f:7c:ab:
                    64:a8:17:fc:ca:5d:7b:ba:e0:21:e5:72:2e:6f:2e:
                    86:d8:95:73:da:ac:1b:53:b9:5f:3f:d7:19:0d:25:
                    4f:e1:63:63:51:8b:0b:64:3f:ad:43:b8:a5:1c:5c:
                    34:b3:ae:00:a0:63:c5:f6:7f:0b:59:68:78:73:a6:
                    8c:18:a9:02:6d:af:c3:19:01:2e:b8:10:e3:c6:cc:
                    40:b4:69:a3:46:33:69:87:6e:c4:bb:17:a6:f3:e8:
                    dd:ad:73:bc:7b:2f:21:b5:fd:66:51:0c:bd:54:b3:
                    e1:6d:5f:1c:bc:23:73:d1:09:03:89:14:d2:10:b9:
                    64:c3:2a:d0:a1:96:4a:bc:e1:d4:1a:5b:c7:a0:c0:
                    c1:63:78:0f:44:37:30:32:96:80:32:23:95:a1:77:
                    ba:13:d2:97:73:e2:5d:25:c9:6a:0d:c3:39:60:a4:
                    b4:b0:69:42:42:09:e9:d8:08:bc:33:20:b3:58:22:
                    a7:aa:eb:c4:e1:e6:61:83:c5:d2:96:df:d9:d0:4f:
                    ad:d7
                Exponent: 65537 (0x10001)
        X509v3 extensions:
            X509v3 Subject Key Identifier: 
                B3:11:32:C9:92:98:84:E2:C9:F8:D0:3B:6E:03:42:CA:1F:0E:8E:3C
            X509v3 Authority Key Identifier: 
                keyid:B3:11:32:C9:92:98:84:E2:C9:F8:D0:3B:6E:03:42:CA:1F:0E:8E:3C
                DirName:/C=US/ST=Montana/L=Bozeman/O=Sawtooth/OU=Consulting/CN=www.wolfssl.com/emailAddress=info@wolfssl.com
                serial:6A

            X509v3 Basic Constraints: 
                CA:FALSE
    Signature Algorithm: sha1WithRSAEncryption
         65:05:63:43:5f:91:a4:54:31:3e:e8:55:ac:7b:b2:57:c2:f2:
         2e:3d:f2:53:cf:13:b5:35:7c:b6:f9:a7:86:e2:41:aa:14:6a:
         65:69:17:fb:02:39:7c:31:78:80:9a:0d:27:10:9a:7c:2c:17:
         30:03:32:6a:3f:06:fa:19:02:83:91:71:4d:50:e0:55:17:ed:
         ec:62:3b:29:51:2e:c9:9a:75:3b:91:f9:bc:d0:2d:4f:ff:30:
         d8:1d:b6:7e:8e:39:70:a1:c9:d1:f7:a3:81:a5:7c:5d:e4:e0:
         cf:43:60:a1:c0:b8:e7:16:ed:43:6d:b2:09:cd:bc:51:57:f0:
         73:a2:cb:03:b6:c7:56:97:96:c6:8c:93:aa:44:3d:62:0c:b5:
         ca:b8:65:1b:98:8f:ad:98:9e:9b:2e:83:0d:e6:d0:76:d8:c5:
         5c:4a:9e:40:88:65:c0:0e:bc:5c:87:dd:c1:e0:51:b7:8b:d5:
         73:da:8d:83:0d:16:60:a3:ff:f4:7c:4a:85:bb:a1:81:f5:9e:
         5d:f8:e7:d6:9d:6a:5b:9d:2b:f8:3d:02:16:ff:b9:6a:60:c9:
         64:40:5d:9c:37:a4:b8:ee:82:52:5c:db:07:5f:04:98:4a:f2:
         ec:6c:86:50:9c:a0:99:5b:24:9a:d9:7d:1f:5d:f3:7e:47:59:
         10:48:f5:2a
-----BEGIN CERTIFICATE-----
MIIEoDCCA4igAwIBAgIBazANBgkqhkiG9w0BAQUFADCBmjELMAkGA1UEBhMCVVMx
EzARBgNVBAgMCldhc2hpbmd0b24xEDAOBgNVBAcMB1NlYXR0bGUxFTATBgNVBAoM
DHdvbGZTU0wgSW5jLjEUMBIGA1UECwwLRW5naW5lZXJpbmcxFjAUBgNVBAMMDVNl
cnZlciAxMjcgQ0ExHzAdBgkqhkiG9w0BCQEWEGluZm9Ad29sZnNzbC5jb20wHhcN
MTYwOTIwMDAwOTExWhcNMTkwNjE3MDAwOTExWjCBlzELMAkGA1UEBhMCVVMxEzAR
BgNVBAgMCldhc2hpbmd0b24xEDAOBgNVBAcMB1NlYXR0bGUxFTATBgNVBAoMDHdv
bGZTU0wgSW5jLjEUMBIGA1UECwwLRW5naW5lZXJpbmcxEzARBgNVBAMMClNlcnZl
ciAxMjcxHzAdBgkqhkiG9w0BCQEWEGluZm9Ad29sZnNzbC5jb20wggEiMA0GCSqG
SIb3DQEBAQUAA4IBDwAwggEKAoIBAQDAlQjhV0HycW230kVBJwFlxkWu8rwkMLiV
zi9O1vYciLx8n/uoZ3/+XJxRdfeKygfnNS+P4b17wC98q2SoF/zKXXu64CHlci5v
LobYlXParBtTuV8/1xkNJU/hY2NRiwtkP61DuKUcXDSzrgCgY8X2fwtZaHhzpowY
qQJtr8MZAS64EOPGzEC0aaNGM2mHbsS7F6bz6N2tc7x7LyG1/WZRDL1Us+FtXxy8
I3PRCQOJFNIQuWTDKtChlkq84dQaW8egwMFjeA9ENzAyloAyI5Whd7oT0pdz4l0l
yWoNwzlgpLSwaUJCCenYCLwzILNYIqeq68Th5mGDxdKW39nQT63XAgMBAAGjgfEw
ge4wHQYDVR0OBBYEFLMRMsmSmITiyfjQO24DQsofDo48MIHBBgNVHSMEgbkwgbaA
FLMRMsmSmITiyfjQO24DQsofDo48oYGapIGXMIGUMQswCQYDVQQGEwJVUzEQMA4G
A1UECAwHTW9udGFuYTEQMA4GA1UEBwwHQm96ZW1hbjERMA8GA1UECgwIU2F3dG9v
dGgxEzARBgNVBAsMCkNvbnN1bHRpbmcxGDAWBgNVBAMMD3d3dy53b2xmc3NsLmNv
bTEfMB0GCSqGSIb3DQEJARYQaW5mb0B3b2xmc3NsLmNvbYIBajAJBgNVHRMEAjAA
MA0GCSqGSIb3DQEBBQUAA4IBAQBlBWNDX5GkVDE+6FWse7JXwvIuPfJTzxO1NXy2
+aeG4kGqFGplaRf7Ajl8MXiAmg0nEJp8LBcwAzJqPwb6GQKDkXFNUOBVF+3sYjsp
US7JmnU7kfm80C1P/zDYHbZ+jjlwocnR96OBpXxd5ODPQ2ChwLjnFu1DbbIJzbxR
V/BzossDtsdWl5bGjJOqRD1iDLXKuGUbmI+tmJ6bLoMN5tB22MVcSp5AiGXADrxc
h93B4FG3i9Vz2o2DDRZgo//0fEqFu6GB9Z5d+OfWnWpbnSv4PQIW/7lqYMlkQF2c
N6S47oJSXNsHXwSYSvLsbIZQnKCZWySa2X0fXfN+R1kQSPUq
-----END CERTIFICATE-----
Certificate:
    Data:
        Version: 3 (0x2)
        Serial Number: 106 (0x6a)
    Signature Algorithm: sha1WithRSAEncryption
        Issuer: C=US, ST=Montana, L=Bozeman, O=Sawtooth, OU=Consulting, CN=www.wolfssl.com/emailAddress=info@wolfssl.com
        Validity
            Not Before: Sep 19 23:24:16 2016 GMT
            Not After : Jun 16 23:24:16 2019 GMT
        Subject: C=US, ST=Washington, L=Seattle, O=wolfSSL Inc., OU=Engineering, CN=Server 127 CA/emailAddress=info@wolfssl.com
        Subject Public Key Info:
            Public Key Algorithm: rsaEncryption
                Public-Key: (2048 bit)
                Modulus:
                    00:c0:95:08:e1:57:41:f2:71:6d:b7:d2:45:41:27:
                    01:65:c6:45:ae:f2:bc:24:30:b8:95:ce:2f:4e:d6:
                    f6:1c:88:bc:7c:9f:fb:a8:67:7f:fe:5c:9c:51:75:
                    f7:8a:ca:07:e7:35:2f:8f:e1:bd:7b:c0:2f:7c:ab:
                    64:a8:17:fc:ca:5d:7b:ba:e0:21:e5:72:2e:6f:2e:
                    86:d8:95:73:da:ac:1b:53:b9:5f:3f:d7:19:0d:25:
                    4f:e1:63:63:51:8b:0b:64:3f:ad:43:b8:a5:1c:5c:
                    34:b3:ae:00:a0:63:c5:f6:7f:0b:59:68:78:73:a6:
                    8c:18:a9:02:6d:af:c3:19:01:2e:b8:10:e3:c6:cc:
                    40:b4:69:a3:46:33:69:87:6e:c4:bb:17:a6:f3:e8:
                    dd:ad:73:bc:7b:2f:21:b5:fd:66:51:0c:bd:54:b3:
                    e1:6d:5f:1c:bc:23:73:d1:09:03:89:14:d2:10:b9:
                    64:c3:2a:d0:a1:96:4a:bc:e1:d4:1a:5b:c7:a0:c0:
                    c1:63:78:0f:44:37:30:32:96:80:32:23:95:a1:77:
                    ba:13:d2:97:73:e2:5d:25:c9:6a:0d:c3:39:60:a4:
                    b4:b0:69:42:42:09:e9:d8:08:bc:33:20:b3:58:22:
                    a7:aa:eb:c4:e1:e6:61:83:c5:d2:96:df:d9:d0:4f:
                    ad:d7
                Exponent: 65537 (0x10001)
        X509v3 extensions:
            X509v3 Subject Key Identifier: 
                B3:11:32:C9:92:98:84:E2:C9:F8:D0:3B:6E:03:42:CA:1F:0E:8E:3C
            X509v3 Authority Key Identifier: 
                keyid:27:8E:67:11:74:C3:26:1D:3F:ED:33:63:B3:A4:D8:1D:30:E5:E8:D5
                DirName:/C=US/ST=Montana/L=Bozeman/O=Sawtooth/OU=Consulting/CN=www.wolfssl.com/emailAddress=info@wolfssl.com
                serial:B7:B6:90:33:66:1B:6B:23

            X509v3 Basic Constraints: 
                CA:TRUE, pathlen:127
            X509v3 Key Usage: 
                Certificate Sign, CRL Sign
    Signature Algorithm: sha1WithRSAEncryption
         34:c3:f2:9a:80:df:5c:8a:b4:c1:08:f5:c6:72:a2:74:90:1d:
         e9:f9:7a:e7:6e:3b:df:be:01:28:6b:10:ee:5f:9d:8d:5b:7a:
         fc:40:12:7f:b6:bb:ac:d9:07:73:78:d0:4f:53:5d:f8:c3:50:
         ba:f7:76:a2:e5:12:fa:8f:01:24:a2:b7:8a:e4:6c:0b:62:51:
         37:39:4a:90:eb:11:16:26:58:44:ed:3f:41:57:8e:32:7a:e4:
         85:a7:ce:44:d2:46:28:9e:29:34:9b:16:a5:17:ef:56:11:0a:
         60:b8:88:7c:3e:ed:ec:5e:57:5f:b1:b9:b7:55:38:a0:ea:04:
         58:22:04:7e:30:f3:40:33:a1:cd:3f:24:72:7b:a4:b4:2d:b5:
         96:b3:80:7a:48:85:83:3c:6e:55:43:7c:13:d3:5e:f8:70:32:
         da:5a:78:db:d0:54:54:9c:e9:38:05:da:7c:ac:bb:ec:79:cf:
         3e:56:32:ce:29:31:70:07:9a:c7:b4:00:02:33:af:1b:ce:7c:
         16:ff:8b:c0:8b:80:1e:0d:c7:d4:07:95:49:d4:9a:ed:55:b6:
         1f:bd:e7:77:b9:fa:af:29:6a:49:79:02:3c:b9:ea:6c:68:c3:
         ef:ca:40:27:d0:15:d0:da:31:9c:2f:3d:a5:66:e3:f8:a4:98:
         d5:00:5f:b2
-----BEGIN CERTIFICATE-----
MIIEujCCA6KgAwIBAgIBajANBgkqhkiG9w0BAQUFADCBlDELMAkGA1UEBhMCVVMx
EDAOBgNVBAgMB01vbnRhbmExEDAOBgNVBAcMB0JvemVtYW4xETAPBgNVBAoMCFNh
d3Rvb3RoMRMwEQYDVQQLDApDb25zdWx0aW5nMRgwFgYDVQQDDA93d3cud29sZnNz
bC5jb20xHzAdBgkqhkiG9w0BCQEWEGluZm9Ad29sZnNzbC5jb20wHhcNMTYwOTE5
MjMyNDE2WhcNMTkwNjE2MjMyNDE2WjCBmjELMAkGA1UEBhMCVVMxEzARBgNVBAgM
Cldhc2hpbmd0b24xEDAOBgNVBAcMB1NlYXR0bGUxFTATBgNVBAoMDHdvbGZTU0wg
SW5jLjEUMBIGA1UECwwLRW5naW5lZXJpbmcxFjAUBgNVBAMMDVNlcnZlciAxMjcg
Q0ExHzAdBgkqhkiG9w0BCQEWEGluZm9Ad29sZnNzbC5jb20wggEiMA0GCSqGSIb3
DQEBAQUAA4IBDwAwggEKAoIBAQDAlQjhV0HycW230kVBJwFlxkWu8rwkMLiVzi9O
1vYciLx8n/uoZ3/+XJxRdfeKygfnNS+P4b17wC98q2SoF/zKXXu64CHlci5vLobY
lXParBtTuV8/1xkNJU/hY2NRiwtkP61DuKUcXDSzrgCgY8X2fwtZaHhzpowYqQJt
r8MZAS64EOPGzEC0aaNGM2mHbsS7F6bz6N2tc7x7LyG1/WZRDL1Us+FtXxy8I3PR
CQOJFNIQuWTDKtChlkq84dQaW8egwMFjeA9ENzAyloAyI5Whd7oT0pdz4l0lyWoN
wzlgpLSwaUJCCenYCLwzILNYIqeq68Th5mGDxdKW39nQT63XAgMBAAGjggENMIIB
CTAdBgNVHQ4EFgQUsxEyyZKYhOLJ+NA7bgNCyh8OjjwwgckGA1UdIwSBwTCBvoAU
J45nEXTDJh0/7TNjs6TYHTDl6NWhgZqkgZcwgZQxCzAJBgNVBAYTAlVTMRAwDgYD
VQQIDAdNb250YW5hMRAwDgYDVQQHDAdCb3plbWFuMREwDwYDVQQKDAhTYXd0b290
aDETMBEGA1UECwwKQ29uc3VsdGluZzEYMBYGA1UEAwwPd3d3LndvbGZzc2wuY29t
MR8wHQYJKoZIhvcNAQkBFhBpbmZvQHdvbGZzc2wuY29tggkAt7aQM2YbayMwDwYD
VR0TBAgwBgEB/wIBfzALBgNVHQ8EBAMCAQYwDQYJKoZIhvcNAQEFBQADggEBADTD
8pqA31yKtMEI9cZyonSQHen5euduO9++AShrEO5fnY1bevxAEn+2u6zZB3N40E9T
XfjDULr3dqLlEvqPASSit4rkbAtiUTc5SpDrERYmWETtP0FXjjJ65IWnzkTSRiie
KTSbFqUX71YRCmC4iHw+7exeV1+xubdVOKDqBFgiBH4w80Azoc0/JHJ7pLQttZaz
gHpIhYM8blVDfBPTXvhwMtpaeNvQVFSc6TgF2nysu+x5zz5WMs4pMXAHmse0AAIz
rxvOfBb/i8CLgB4Nx9QHlUnUmu1Vth+953e5+q8pakl5Ajy56mxow+/KQCfQFdDa
MZwvPaVm4/ikmNUAX7I=
-----END CERTIFICATE-----
