Certificate:
    Data:
        Version: 3 (0x2)
        Serial Number: 111 (0x6f)
    Signature Algorithm: sha1WithRSAEncryption
        Issuer: C=US, ST=Washington, L=Seattle, O=wolfSSL Inc., OU=Engineering, CN=Server 0-1 CA/emailAddress=info@wolfssl.com
        Validity
            Not Before: Sep 20 00:24:02 2016 GMT
            Not After : Jun 17 00:24:02 2019 GMT
        Subject: C=US, ST=Washington, L=Seattle, O=wolfSSL Inc., OU=Engineering, CN=Server 0-1/emailAddress=info@wolfssl.com
        Subject Public Key Info:
            Public Key Algorithm: rsaEncryption
                Public-Key: (2048 bit)
                Modulus:
                    00:c0:95:08:e1:57:41:f2:71:6d:b7:d2:45:41:27:
                    01:65:c6:45:ae:f2:bc:24:30:b8:95:ce:2f:4e:d6:
                    f6:1c:88:bc:7c:9f:fb:a8:67:7f:fe:5c:9c:51:75:
                    f7:8a:ca:07:e7:35:2f:8f:e1:bd:7b:c0:2f:7c:ab:
                    64:a8:17:fc:ca:5d:7b:ba:e0:21:e5:72:2e:6f:2e:
                    86:d8:95:73:da:ac:1b:53:b9:5f:3f:d7:19:0d:25:
                    4f:e1:63:63:51:8b:0b:64:3f:ad:43:b8:a5:1c:5c:
                    34:b3:ae:00:a0:63:c5:f6:7f:0b:59:68:78:73:a6:
                    8c:18:a9:02:6d:af:c3:19:01:2e:b8:10:e3:c6:cc:
                    40:b4:69:a3:46:33:69:87:6e:c4:bb:17:a6:f3:e8:
                    dd:ad:73:bc:7b:2f:21:b5:fd:66:51:0c:bd:54:b3:
                    e1:6d:5f:1c:bc:23:73:d1:09:03:89:14:d2:10:b9:
                    64:c3:2a:d0:a1:96:4a:bc:e1:d4:1a:5b:c7:a0:c0:
                    c1:63:78:0f:44:37:30:32:96:80:32:23:95:a1:77:
                    ba:13:d2:97:73:e2:5d:25:c9:6a:0d:c3:39:60:a4:
                    b4:b0:69:42:42:09:e9:d8:08:bc:33:20:b3:58:22:
                    a7:aa:eb:c4:e1:e6:61:83:c5:d2:96:df:d9:d0:4f:
                    ad:d7
                Exponent: 65537 (0x10001)
        X509v3 extensions:
            X509v3 Subject Key Identifier: 
                B3:11:32:C9:92:98:84:E2:C9:F8:D0:3B:6E:03:42:CA:1F:0E:8E:3C
            X509v3 Authority Key Identifier: 
                keyid:B3:11:32:C9:92:98:84:E2:C9:F8:D0:3B:6E:03:42:CA:1F:0E:8E:3C
                DirName:/C=US/ST=Washington/L=Seattle/O=wolfSSL Inc./OU=Engineering/CN=Server 0 CA/emailAddress=info@wolfssl.com
                serial:6E

            X509v3 Basic Constraints: 
                CA:FALSE
    Signature Algorithm: sha1WithRSAEncryption
         80:ab:40:d2:72:bd:c9:24:e2:b7:cf:b0:f0:39:3d:36:88:9e:
         5c:c9:cd:92:64:fe:8a:09:48:fb:42:38:ae:a9:f3:69:61:f0:
         58:38:9c:0b:99:d3:d1:67:7a:cf:21:e1:8e:97:2c:98:14:c1:
         a9:62:64:70:d6:bf:5b:ff:85:3d:47:c3:81:84:c4:c5:3d:d3:
         41:35:62:e1:25:fc:78:fd:9e:04:44:bf:62:f5:52:a0:38:57:
         a1:45:30:38:35:c2:e5:d2:b6:52:8f:c4:3f:c4:d5:f5:22:25:
         25:70:c3:b2:4d:9e:29:10:a7:13:84:1a:fc:44:a9:df:35:62:
         f9:39:e2:9a:13:2d:84:7e:02:11:b6:f3:95:2c:93:c8:45:26:
         2f:d8:c9:23:b5:fa:f1:aa:da:c7:6f:a8:e4:52:4e:f3:94:60:
         dc:3e:b3:db:5e:4b:92:a9:55:c1:0e:28:8d:6a:fd:98:65:da:
         05:0f:25:ae:7f:20:50:60:43:59:a2:f5:1a:e2:a4:e1:92:ae:
         f6:cb:19:39:60:fe:96:a8:f3:40:e4:93:9c:a6:b4:18:12:3d:
         d1:78:e3:b0:07:72:fc:9a:75:9f:25:17:f3:00:2c:bc:04:fe:
         1a:23:ad:e4:2d:55:a4:d3:0d:3d:60:e5:9f:cf:47:f0:c3:02:
         68:b1:07:72
-----BEGIN CERTIFICATE-----
MIIEpDCCA4ygAwIBAgIBbzANBgkqhkiG9w0BAQUFADCBmjELMAkGA1UEBhMCVVMx
EzARBgNVBAgMCldhc2hpbmd0b24xEDAOBgNVBAcMB1NlYXR0bGUxFTATBgNVBAoM
DHdvbGZTU0wgSW5jLjEUMBIGA1UECwwLRW5naW5lZXJpbmcxFjAUBgNVBAMMDVNl
cnZlciAwLTEgQ0ExHzAdBgkqhkiG9w0BCQEWEGluZm9Ad29sZnNzbC5jb20wHhcN
MTYwOTIwMDAyNDAyWhcNMTkwNjE3MDAyNDAyWjCBlzELMAkGA1UEBhMCVVMxEzAR
BgNVBAgMCldhc2hpbmd0b24xEDAOBgNVBAcMB1NlYXR0bGUxFTATBgNVBAoMDHdv
bGZTU0wgSW5jLjEUMBIGA1UECwwLRW5naW5lZXJpbmcxEzARBgNVBAMMClNlcnZl
ciAwLTExHzAdBgkqhkiG9w0BCQEWEGluZm9Ad29sZnNzbC5jb20wggEiMA0GCSqG
SIb3DQEBAQUAA4IBDwAwggEKAoIBAQDAlQjhV0HycW230kVBJwFlxkWu8rwkMLiV
zi9O1vYciLx8n/uoZ3/+XJxRdfeKygfnNS+P4b17wC98q2SoF/zKXXu64CHlci5v
LobYlXParBtTuV8/1xkNJU/hY2NRiwtkP61DuKUcXDSzrgCgY8X2fwtZaHhzpowY
qQJtr8MZAS64EOPGzEC0aaNGM2mHbsS7F6bz6N2tc7x7LyG1/WZRDL1Us+FtXxy8
I3PRCQOJFNIQuWTDKtChlkq84dQaW8egwMFjeA9ENzAyloAyI5Whd7oT0pdz4l0l
yWoNwzlgpLSwaUJCCenYCLwzILNYIqeq68Th5mGDxdKW39nQT63XAgMBAAGjgfUw
gfIwHQYDVR0OBBYEFLMRMsmSmITiyfjQO24DQsofDo48MIHFBgNVHSMEgb0wgbqA
FLMRMsmSmITiyfjQO24DQsofDo48oYGepIGbMIGYMQswCQYDVQQGEwJVUzETMBEG
A1UECAwKV2FzaGluZ3RvbjEQMA4GA1UEBwwHU2VhdHRsZTEVMBMGA1UECgwMd29s
ZlNTTCBJbmMuMRQwEgYDVQQLDAtFbmdpbmVlcmluZzEUMBIGA1UEAwwLU2VydmVy
IDAgQ0ExHzAdBgkqhkiG9w0BCQEWEGluZm9Ad29sZnNzbC5jb22CAW4wCQYDVR0T
BAIwADANBgkqhkiG9w0BAQUFAAOCAQEAgKtA0nK9ySTit8+w8Dk9NoieXMnNkmT+
iglI+0I4rqnzaWHwWDicC5nT0Wd6zyHhjpcsmBTBqWJkcNa/W/+FPUfDgYTExT3T
QTVi4SX8eP2eBES/YvVSoDhXoUUwODXC5dK2Uo/EP8TV9SIlJXDDsk2eKRCnE4Qa
/ESp3zVi+TnimhMthH4CEbbzlSyTyEUmL9jJI7X68arax2+o5FJO85Rg3D6z215L
kqlVwQ4ojWr9mGXaBQ8lrn8gUGBDWaL1GuKk4ZKu9ssZOWD+lqjzQOSTnKa0GBI9
0XjjsAdy/Jp1nyUX8wAsvAT+GiOt5C1VpNMNPWDln89H8MMCaLEHcg==
-----END CERTIFICATE-----
Certificate:
    Data:
        Version: 3 (0x2)
        Serial Number: 110 (0x6e)
    Signature Algorithm: sha1WithRSAEncryption
        Issuer: C=US, ST=Washington, L=Seattle, O=wolfSSL Inc., OU=Engineering, CN=Server 0 CA/emailAddress=info@wolfssl.com
        Validity
            Not Before: Sep 20 00:22:35 2016 GMT
            Not After : Jun 17 00:22:35 2019 GMT
        Subject: C=US, ST=Washington, L=Seattle, O=wolfSSL Inc., OU=Engineering, CN=Server 0-1 CA/emailAddress=info@wolfssl.com
        Subject Public Key Info:
            Public Key Algorithm: rsaEncryption
                Public-Key: (2048 bit)
                Modulus:
                    00:c0:95:08:e1:57:41:f2:71:6d:b7:d2:45:41:27:
                    01:65:c6:45:ae:f2:bc:24:30:b8:95:ce:2f:4e:d6:
                    f6:1c:88:bc:7c:9f:fb:a8:67:7f:fe:5c:9c:51:75:
                    f7:8a:ca:07:e7:35:2f:8f:e1:bd:7b:c0:2f:7c:ab:
                    64:a8:17:fc:ca:5d:7b:ba:e0:21:e5:72:2e:6f:2e:
                    86:d8:95:73:da:ac:1b:53:b9:5f:3f:d7:19:0d:25:
                    4f:e1:63:63:51:8b:0b:64:3f:ad:43:b8:a5:1c:5c:
                    34:b3:ae:00:a0:63:c5:f6:7f:0b:59:68:78:73:a6:
                    8c:18:a9:02:6d:af:c3:19:01:2e:b8:10:e3:c6:cc:
                    40:b4:69:a3:46:33:69:87:6e:c4:bb:17:a6:f3:e8:
                    dd:ad:73:bc:7b:2f:21:b5:fd:66:51:0c:bd:54:b3:
                    e1:6d:5f:1c:bc:23:73:d1:09:03:89:14:d2:10:b9:
                    64:c3:2a:d0:a1:96:4a:bc:e1:d4:1a:5b:c7:a0:c0:
                    c1:63:78:0f:44:37:30:32:96:80:32:23:95:a1:77:
                    ba:13:d2:97:73:e2:5d:25:c9:6a:0d:c3:39:60:a4:
                    b4:b0:69:42:42:09:e9:d8:08:bc:33:20:b3:58:22:
                    a7:aa:eb:c4:e1:e6:61:83:c5:d2:96:df:d9:d0:4f:
                    ad:d7
                Exponent: 65537 (0x10001)
        X509v3 extensions:
            X509v3 Subject Key Identifier: 
                B3:11:32:C9:92:98:84:E2:C9:F8:D0:3B:6E:03:42:CA:1F:0E:8E:3C
            X509v3 Authority Key Identifier: 
                keyid:B3:11:32:C9:92:98:84:E2:C9:F8:D0:3B:6E:03:42:CA:1F:0E:8E:3C
                DirName:/C=US/ST=Montana/L=Bozeman/O=Sawtooth/OU=Consulting/CN=www.wolfssl.com/emailAddress=info@wolfssl.com
                serial:64

            X509v3 Basic Constraints: 
                CA:TRUE, pathlen:1
            X509v3 Key Usage: 
                Certificate Sign, CRL Sign
    Signature Algorithm: sha1WithRSAEncryption
         22:dd:95:9c:dc:e6:7f:ad:df:55:68:c8:21:f8:84:12:fd:13:
         22:80:2b:ba:1f:da:9d:d2:55:00:a1:22:fc:50:44:6d:0f:ac:
         8a:61:2c:32:c5:63:e1:26:37:10:7c:5e:05:f1:90:0f:21:57:
         b4:61:e0:40:0b:4f:1b:bf:8b:d8:fd:28:d6:55:73:bd:a9:5c:
         5e:61:89:4f:e1:07:b6:5a:78:c5:0c:65:7a:38:11:e7:86:46:
         2a:0c:a5:70:71:aa:16:9c:79:d6:c2:18:4c:b8:fb:86:1a:78:
         70:e5:0a:27:48:2a:d4:14:d7:3f:31:76:33:a0:4b:f9:f8:34:
         2e:c9:06:e4:e2:a0:0c:02:1e:c4:a0:d3:2b:ce:77:0e:b8:31:
         d5:02:66:b1:62:10:5b:63:e2:7f:aa:23:0a:63:d9:33:76:2d:
         88:9b:0f:6a:a2:ab:e8:b7:a4:83:7c:8e:1d:8c:45:d7:90:78:
         5c:3d:41:85:ac:79:ce:6c:fc:36:6b:20:fa:0c:19:a1:2b:91:
         d0:5f:fd:72:86:cb:17:22:02:70:76:ed:61:78:1c:ce:d0:e3:
         17:9c:4d:58:9e:30:d5:c7:33:5b:44:0d:16:5c:ca:a4:67:13:
         3a:18:f8:94:ac:5e:17:a5:c2:2c:11:89:7b:7a:fd:f5:9a:e3:
         19:93:c0:60
-----BEGIN CERTIFICATE-----
MIIEtjCCA56gAwIBAgIBbjANBgkqhkiG9w0BAQUFADCBmDELMAkGA1UEBhMCVVMx
EzARBgNVBAgMCldhc2hpbmd0b24xEDAOBgNVBAcMB1NlYXR0bGUxFTATBgNVBAoM
DHdvbGZTU0wgSW5jLjEUMBIGA1UECwwLRW5naW5lZXJpbmcxFDASBgNVBAMMC1Nl
cnZlciAwIENBMR8wHQYJKoZIhvcNAQkBFhBpbmZvQHdvbGZzc2wuY29tMB4XDTE2
MDkyMDAwMjIzNVoXDTE5MDYxNzAwMjIzNVowgZoxCzAJBgNVBAYTAlVTMRMwEQYD
VQQIDApXYXNoaW5ndG9uMRAwDgYDVQQHDAdTZWF0dGxlMRUwEwYDVQQKDAx3b2xm
U1NMIEluYy4xFDASBgNVBAsMC0VuZ2luZWVyaW5nMRYwFAYDVQQDDA1TZXJ2ZXIg
MC0xIENBMR8wHQYJKoZIhvcNAQkBFhBpbmZvQHdvbGZzc2wuY29tMIIBIjANBgkq
hkiG9w0BAQEFAAOCAQ8AMIIBCgKCAQEAwJUI4VdB8nFtt9JFQScBZcZFrvK8JDC4
lc4vTtb2HIi8fJ/7qGd//lycUXX3isoH5zUvj+G9e8AvfKtkqBf8yl17uuAh5XIu
by6G2JVz2qwbU7lfP9cZDSVP4WNjUYsLZD+tQ7ilHFw0s64AoGPF9n8LWWh4c6aM
GKkCba/DGQEuuBDjxsxAtGmjRjNph27Euxem8+jdrXO8ey8htf1mUQy9VLPhbV8c
vCNz0QkDiRTSELlkwyrQoZZKvOHUGlvHoMDBY3gPRDcwMpaAMiOVoXe6E9KXc+Jd
JclqDcM5YKS0sGlCQgnp2Ai8MyCzWCKnquvE4eZhg8XSlt/Z0E+t1wIDAQABo4IB
BTCCAQEwHQYDVR0OBBYEFLMRMsmSmITiyfjQO24DQsofDo48MIHBBgNVHSMEgbkw
gbaAFLMRMsmSmITiyfjQO24DQsofDo48oYGapIGXMIGUMQswCQYDVQQGEwJVUzEQ
MA4GA1UECAwHTW9udGFuYTEQMA4GA1UEBwwHQm96ZW1hbjERMA8GA1UECgwIU2F3
dG9vdGgxEzARBgNVBAsMCkNvbnN1bHRpbmcxGDAWBgNVBAMMD3d3dy53b2xmc3Ns
LmNvbTEfMB0GCSqGSIb3DQEJARYQaW5mb0B3b2xmc3NsLmNvbYIBZDAPBgNVHRME
CDAGAQH/AgEBMAsGA1UdDwQEAwIBBjANBgkqhkiG9w0BAQUFAAOCAQEAIt2VnNzm
f63fVWjIIfiEEv0TIoAruh/andJVAKEi/FBEbQ+simEsMsVj4SY3EHxeBfGQDyFX
tGHgQAtPG7+L2P0o1lVzvalcXmGJT+EHtlp4xQxlejgR54ZGKgylcHGqFpx51sIY
TLj7hhp4cOUKJ0gq1BTXPzF2M6BL+fg0LskG5OKgDAIexKDTK853Drgx1QJmsWIQ
W2Pif6ojCmPZM3YtiJsPaqKr6Lekg3yOHYxF15B4XD1Bhax5zmz8Nmsg+gwZoSuR
0F/9cobLFyICcHbtYXgcztDjF5xNWJ4w1cczW0QNFlzKpGcTOhj4lKxeF6XCLBGJ
e3r99ZrjGZPAYA==
-----END CERTIFICATE-----
Certificate:
    Data:
        Version: 3 (0x2)
        Serial Number: 100 (0x64)
    Signature Algorithm: sha1WithRSAEncryption
        Issuer: C=US, ST=Montana, L=Bozeman, O=Sawtooth, OU=Consulting, CN=www.wolfssl.com/emailAddress=info@wolfssl.com
        Validity
            Not Before: Sep 19 23:03:51 2016 GMT
            Not After : Jun 16 23:03:51 2019 GMT
        Subject: C=US, ST=Washington, L=Seattle, O=wolfSSL Inc., OU=Engineering, CN=Server 0 CA/emailAddress=info@wolfssl.com
        Subject Public Key Info:
            Public Key Algorithm: rsaEncryption
                Public-Key: (2048 bit)
                Modulus:
                    00:c0:95:08:e1:57:41:f2:71:6d:b7:d2:45:41:27:
                    01:65:c6:45:ae:f2:bc:24:30:b8:95:ce:2f:4e:d6:
                    f6:1c:88:bc:7c:9f:fb:a8:67:7f:fe:5c:9c:51:75:
                    f7:8a:ca:07:e7:35:2f:8f:e1:bd:7b:c0:2f:7c:ab:
                    64:a8:17:fc:ca:5d:7b:ba:e0:21:e5:72:2e:6f:2e:
                    86:d8:95:73:da:ac:1b:53:b9:5f:3f:d7:19:0d:25:
                    4f:e1:63:63:51:8b:0b:64:3f:ad:43:b8:a5:1c:5c:
                    34:b3:ae:00:a0:63:c5:f6:7f:0b:59:68:78:73:a6:
                    8c:18:a9:02:6d:af:c3:19:01:2e:b8:10:e3:c6:cc:
                    40:b4:69:a3:46:33:69:87:6e:c4:bb:17:a6:f3:e8:
                    dd:ad:73:bc:7b:2f:21:b5:fd:66:51:0c:bd:54:b3:
                    e1:6d:5f:1c:bc:23:73:d1:09:03:89:14:d2:10:b9:
                    64:c3:2a:d0:a1:96:4a:bc:e1:d4:1a:5b:c7:a0:c0:
                    c1:63:78:0f:44:37:30:32:96:80:32:23:95:a1:77:
                    ba:13:d2:97:73:e2:5d:25:c9:6a:0d:c3:39:60:a4:
                    b4:b0:69:42:42:09:e9:d8:08:bc:33:20:b3:58:22:
                    a7:aa:eb:c4:e1:e6:61:83:c5:d2:96:df:d9:d0:4f:
                    ad:d7
                Exponent: 65537 (0x10001)
        X509v3 extensions:
            X509v3 Subject Key Identifier: 
                B3:11:32:C9:92:98:84:E2:C9:F8:D0:3B:6E:03:42:CA:1F:0E:8E:3C
            X509v3 Authority Key Identifier: 
                keyid:27:8E:67:11:74:C3:26:1D:3F:ED:33:63:B3:A4:D8:1D:30:E5:E8:D5
                DirName:/C=US/ST=Montana/L=Bozeman/O=Sawtooth/OU=Consulting/CN=www.wolfssl.com/emailAddress=info@wolfssl.com
                serial:B7:B6:90:33:66:1B:6B:23

            X509v3 Basic Constraints: 
                CA:TRUE, pathlen:0
            X509v3 Key Usage: 
                Certificate Sign, CRL Sign
    Signature Algorithm: sha1WithRSAEncryption
         a4:3b:22:20:6f:07:33:d0:ae:6d:13:fd:4f:48:dc:03:c6:9c:
         e0:34:73:fa:e8:2f:aa:bd:15:1c:87:fe:6f:e4:c6:8e:36:b8:
         b6:bb:53:c1:ea:e4:5c:d9:de:44:d5:05:89:88:79:d9:87:c9:
         05:78:57:bf:c0:25:1f:18:b6:f6:02:50:c8:b1:d1:0d:64:b0:
         da:7e:68:e0:fa:64:68:51:1a:05:7f:7d:33:c5:27:71:0f:f6:
         d7:72:19:7c:9f:57:34:5f:45:7a:b5:48:2e:d1:83:36:85:90:
         0c:c8:c1:be:3f:c3:7a:a3:ad:9b:3a:ce:a7:b4:50:1b:76:2e:
         8a:a4:a4:61:96:75:b4:a7:63:6e:7c:43:2f:98:18:39:92:57:
         87:54:76:37:73:53:37:cb:f1:95:34:11:9d:f4:94:e7:19:4a:
         9d:5f:91:cc:ff:b4:ed:39:53:82:42:86:2e:24:13:41:a4:4a:
         6c:d1:d9:00:ac:76:2c:59:9e:c4:28:33:b5:01:bf:74:63:01:
         23:8a:a8:78:e4:b7:e0:8b:ab:ec:b0:43:d8:0b:b8:ff:9e:62:
         0a:5d:e4:7c:73:f9:b4:d7:dd:6a:13:a5:28:05:90:f1:26:c1:
         4d:2b:db:a2:c6:f5:aa:13:19:a5:28:27:f8:c7:94:e8:ef:21:
         85:5b:32:02
-----BEGIN CERTIFICATE-----
MIIEuDCCA6CgAwIBAgIBZDANBgkqhkiG9w0BAQUFADCBlDELMAkGA1UEBhMCVVMx
EDAOBgNVBAgMB01vbnRhbmExEDAOBgNVBAcMB0JvemVtYW4xETAPBgNVBAoMCFNh
d3Rvb3RoMRMwEQYDVQQLDApDb25zdWx0aW5nMRgwFgYDVQQDDA93d3cud29sZnNz
bC5jb20xHzAdBgkqhkiG9w0BCQEWEGluZm9Ad29sZnNzbC5jb20wHhcNMTYwOTE5
MjMwMzUxWhcNMTkwNjE2MjMwMzUxWjCBmDELMAkGA1UEBhMCVVMxEzARBgNVBAgM
Cldhc2hpbmd0b24xEDAOBgNVBAcMB1NlYXR0bGUxFTATBgNVBAoMDHdvbGZTU0wg
SW5jLjEUMBIGA1UECwwLRW5naW5lZXJpbmcxFDASBgNVBAMMC1NlcnZlciAwIENB
MR8wHQYJKoZIhvcNAQkBFhBpbmZvQHdvbGZzc2wuY29tMIIBIjANBgkqhkiG9w0B
AQEFAAOCAQ8AMIIBCgKCAQEAwJUI4VdB8nFtt9JFQScBZcZFrvK8JDC4lc4vTtb2
HIi8fJ/7qGd//lycUXX3isoH5zUvj+G9e8AvfKtkqBf8yl17uuAh5XIuby6G2JVz
2qwbU7lfP9cZDSVP4WNjUYsLZD+tQ7ilHFw0s64AoGPF9n8LWWh4c6aMGKkCba/D
GQEuuBDjxsxAtGmjRjNph27Euxem8+jdrXO8ey8htf1mUQy9VLPhbV8cvCNz0QkD
iRTSELlkwyrQoZZKvOHUGlvHoMDBY3gPRDcwMpaAMiOVoXe6E9KXc+JdJclqDcM5
YKS0sGlCQgnp2Ai8MyCzWCKnquvE4eZhg8XSlt/Z0E+t1wIDAQABo4IBDTCCAQkw
HQYDVR0OBBYEFLMRMsmSmITiyfjQO24DQsofDo48MIHJBgNVHSMEgcEwgb6AFCeO
ZxF0wyYdP+0zY7Ok2B0w5ejVoYGapIGXMIGUMQswCQYDVQQGEwJVUzEQMA4GA1UE
CAwHTW9udGFuYTEQMA4GA1UEBwwHQm96ZW1hbjERMA8GA1UECgwIU2F3dG9vdGgx
EzARBgNVBAsMCkNvbnN1bHRpbmcxGDAWBgNVBAMMD3d3dy53b2xmc3NsLmNvbTEf
MB0GCSqGSIb3DQEJARYQaW5mb0B3b2xmc3NsLmNvbYIJALe2kDNmG2sjMA8GA1Ud
EwQIMAYBAf8CAQAwCwYDVR0PBAQDAgEGMA0GCSqGSIb3DQEBBQUAA4IBAQCkOyIg
bwcz0K5tE/1PSNwDxpzgNHP66C+qvRUch/5v5MaONri2u1PB6uRc2d5E1QWJiHnZ
h8kFeFe/wCUfGLb2AlDIsdENZLDafmjg+mRoURoFf30zxSdxD/bXchl8n1c0X0V6
tUgu0YM2hZAMyMG+P8N6o62bOs6ntFAbdi6KpKRhlnW0p2NufEMvmBg5kleHVHY3
c1M3y/GVNBGd9JTnGUqdX5HM/7TtOVOCQoYuJBNBpEps0dkArHYsWZ7EKDO1Ab90
YwEjiqh45Lfgi6vssEPYC7j/nmIKXeR8c/m0191qE6UoBZDxJsFNK9uixvWqExml
KCf4x5To7yGFWzIC
-----END CERTIFICATE-----
