Certificate:
    Data:
        Version: 3 (0x2)
        Serial Number:
            f3:63:b8:35:1d:0a:d8:d9
    Signature Algorithm: sha256WithRSAEncryption
        Issuer: C=US, ST=Montana, L=Bozeman, O=wolfSSL_1024, OU=Programming-1024, CN=www.wolfssl.com/emailAddress=info@wolfssl.com
        Validity
            Not Before: Aug 11 20:07:37 2016 GMT
            Not After : May  8 20:07:37 2019 GMT
        Subject: C=US, ST=Montana, L=Bozeman, O=wolfSSL_1024, OU=Programming-1024, CN=www.wolfssl.com/emailAddress=info@wolfssl.com
        Subject Public Key Info:
            Public Key Algorithm: rsaEncryption
                Public-Key: (1024 bit)
                Modulus:
                    00:bc:73:0e:a8:49:f3:74:a2:a9:ef:18:a5:da:55:
                    99:21:f9:c8:ec:b3:6d:48:e5:35:35:75:77:37:ec:
                    d1:61:90:5f:3e:d9:e4:d5:df:94:ca:c1:a9:d7:19:
                    da:86:c9:e8:4d:c4:61:36:82:fe:ab:ad:7e:77:25:
                    bb:8d:11:a5:bc:62:3a:a8:38:cc:39:a2:04:66:b4:
                    f7:f7:f3:aa:da:4d:02:0e:bb:5e:8d:69:48:dc:77:
                    c9:28:0e:22:e9:6b:a4:26:ba:4c:e8:c1:fd:4a:6f:
                    2b:1f:ef:8a:ae:f6:90:62:e5:64:1e:eb:2b:3c:67:
                    c8:dc:27:00:f6:91:68:65:a9
                Exponent: 65537 (0x10001)
        X509v3 extensions:
            X509v3 Subject Key Identifier: 
                81:69:0F:F8:DF:DD:CF:34:29:D5:67:75:71:85:C7:75:10:69:59:EC
            X509v3 Authority Key Identifier: 
                keyid:81:69:0F:F8:DF:DD:CF:34:29:D5:67:75:71:85:C7:75:10:69:59:EC
                DirName:/C=US/ST=Montana/L=Bozeman/O=wolfSSL_1024/OU=Programming-1024/CN=www.wolfssl.com/emailAddress=info@wolfssl.com
                serial:F3:63:B8:35:1D:0A:D8:D9

            X509v3 Basic Constraints: 
                CA:TRUE
    Signature Algorithm: sha256WithRSAEncryption
         31:5e:c5:8c:6f:b7:c5:47:1b:51:5f:99:91:a1:23:45:3c:36:
         59:20:fe:90:46:95:79:e8:b8:d9:db:44:7f:63:42:71:59:d5:
         59:a5:3c:d3:43:83:a0:7d:1e:56:36:02:92:e2:0a:19:f6:97:
         f2:82:12:a6:b2:bf:3b:b6:b0:07:fc:7a:5b:78:22:a0:31:f4:
         3d:eb:0a:c5:e4:e5:b4:c7:bb:4f:a9:b8:37:19:bf:c7:64:9d:
         74:9e:78:df:09:f5:d6:dd:c2:fb:ce:94:d5:bf:97:b0:76:b5:
         e9:10:65:6c:48:85:c4:1b:ff:5b:64:c7:11:30:06:e4:40:f5:
         90:2b
-----BEGIN CERTIFICATE-----
MIIDxTCCAy6gAwIBAgIJAPNjuDUdCtjZMA0GCSqGSIb3DQEBCwUAMIGeMQswCQYD
VQQGEwJVUzEQMA4GA1UECAwHTW9udGFuYTEQMA4GA1UEBwwHQm96ZW1hbjEVMBMG
A1UECgwMd29sZlNTTF8xMDI0MRkwFwYDVQQLDBBQcm9ncmFtbWluZy0xMDI0MRgw
FgYDVQQDDA93d3cud29sZnNzbC5jb20xHzAdBgkqhkiG9w0BCQEWEGluZm9Ad29s
ZnNzbC5jb20wHhcNMTYwODExMjAwNzM3WhcNMTkwNTA4MjAwNzM3WjCBnjELMAkG
A1UEBhMCVVMxEDAOBgNVBAgMB01vbnRhbmExEDAOBgNVBAcMB0JvemVtYW4xFTAT
BgNVBAoMDHdvbGZTU0xfMTAyNDEZMBcGA1UECwwQUHJvZ3JhbW1pbmctMTAyNDEY
MBYGA1UEAwwPd3d3LndvbGZzc2wuY29tMR8wHQYJKoZIhvcNAQkBFhBpbmZvQHdv
bGZzc2wuY29tMIGfMA0GCSqGSIb3DQEBAQUAA4GNADCBiQKBgQC8cw6oSfN0oqnv
GKXaVZkh+cjss21I5TU1dXc37NFhkF8+2eTV35TKwanXGdqGyehNxGE2gv6rrX53
JbuNEaW8YjqoOMw5ogRmtPf386raTQIOu16NaUjcd8koDiLpa6Qmukzowf1Kbysf
74qu9pBi5WQe6ys8Z8jcJwD2kWhlqQIDAQABo4IBBzCCAQMwHQYDVR0OBBYEFIFp
D/jf3c80KdVndXGFx3UQaVnsMIHTBgNVHSMEgcswgciAFIFpD/jf3c80KdVndXGF
x3UQaVnsoYGkpIGhMIGeMQswCQYDVQQGEwJVUzEQMA4GA1UECAwHTW9udGFuYTEQ
MA4GA1UEBwwHQm96ZW1hbjEVMBMGA1UECgwMd29sZlNTTF8xMDI0MRkwFwYDVQQL
DBBQcm9ncmFtbWluZy0xMDI0MRgwFgYDVQQDDA93d3cud29sZnNzbC5jb20xHzAd
BgkqhkiG9w0BCQEWEGluZm9Ad29sZnNzbC5jb22CCQDzY7g1HQrY2TAMBgNVHRME
BTADAQH/MA0GCSqGSIb3DQEBCwUAA4GBADFexYxvt8VHG1FfmZGhI0U8Nlkg/pBG
lXnouNnbRH9jQnFZ1VmlPNNDg6B9HlY2ApLiChn2l/KCEqayvzu2sAf8elt4IqAx
9D3rCsXk5bTHu0+puDcZv8dknXSeeN8J9dbdwvvOlNW/l7B2tekQZWxIhcQb/1tk
xxEwBuRA9ZAr
-----END CERTIFICATE-----
