Certificate:
    Data:
        Version: 3 (0x2)
        Serial Number:
            c9:72:2a:eb:e8:4a:47:e7
    Signature Algorithm: sha256WithRSAEncryption
        Issuer: C = US, ST = Montana, L = Bozeman, O = wolfSSL_3072, OU = Programming-3072, CN = www.wolfssl.com, emailAddress = info@wolfssl.com
        Validity
            Not Before: Aug 11 05:14:40 2017 GMT
            Not After : May  7 05:14:40 2020 GMT
        Subject: C = US, ST = Montana, L = Bozeman, O = wolfSSL_3072, OU = Programming-3072, CN = www.wolfssl.com, emailAddress = info@wolfssl.com
        Subject Public Key Info:
            Public Key Algorithm: rsaEncryption
                Public-Key: (3072 bit)
                Modulus:
                    00:c1:00:b0:1a:0a:ba:88:03:cc:92:d6:f7:2e:0d:
                    ad:be:60:f4:a4:53:a3:dc:f9:b6:48:6c:21:33:cf:
                    7c:a0:c5:35:37:1a:5f:7e:65:33:07:b4:9a:d1:2e:
                    b2:ed:35:a1:c8:67:b3:db:39:05:8d:aa:81:74:00:
                    85:22:72:f8:7d:39:47:53:00:56:71:cf:82:d7:fc:
                    a2:7d:a0:6e:10:a2:96:db:cc:8e:e4:2d:9d:9d:5b:
                    4a:43:5e:cb:3d:48:72:af:f4:6a:da:34:2f:ed:99:
                    c1:1b:fb:4c:56:8a:a0:66:8c:fb:5d:10:d5:5b:0f:
                    96:04:d9:c5:b1:55:f5:88:76:db:d3:da:a1:dc:e9:
                    ee:d1:67:dd:bf:54:50:07:ef:2f:79:fb:4e:59:2a:
                    bf:92:0d:80:6f:7b:ec:79:65:9a:c3:08:c0:4f:c6:
                    6b:33:bf:9d:4d:af:f9:83:af:25:42:4c:93:f1:9f:
                    d6:33:7d:d4:85:2a:77:44:1d:1f:ca:d3:22:ab:69:
                    50:35:d8:47:3e:f7:9c:a8:e3:f9:84:60:9e:36:10:
                    02:5c:9c:1f:33:1c:e6:bb:d0:5f:28:63:27:4c:b5:
                    1c:71:b3:f4:7a:33:aa:45:70:a9:54:88:70:07:0e:
                    45:4f:b1:7f:2a:fd:bf:31:da:97:96:c8:55:49:f2:
                    c3:b6:e6:08:78:ca:40:8b:2e:5d:8e:4e:6c:65:6b:
                    57:f4:1d:ee:41:b6:ed:24:0d:38:f2:40:bd:7d:59:
                    6b:c5:d6:67:e2:12:9b:10:05:fe:eb:40:1d:c5:73:
                    75:ac:e9:9c:07:63:72:e4:c5:04:fe:c9:17:13:bf:
                    04:02:0e:44:e9:9d:59:6e:7e:63:38:e6:db:31:21:
                    28:5e:82:20:36:ad:26:fe:ba:6d:af:57:2e:32:aa:
                    a6:2c:54:b4:25:50:11:ac:25:8b:84:1b:7b:5d:ae:
                    df:e1:c4:32:3a:b4:60:6c:16:ef:9c:2c:a8:67:d0:
                    53:f5:c8:97:9a:9e:81:25:e6:c7
                Exponent: 65537 (0x10001)
        X509v3 extensions:
            X509v3 Subject Key Identifier: 
                FA:B8:8A:0E:1D:E7:2B:22:BA:2D:F4:54:DD:7E:D4:63:8A:AB:E7:95
            X509v3 Authority Key Identifier: 
                keyid:FA:B8:8A:0E:1D:E7:2B:22:BA:2D:F4:54:DD:7E:D4:63:8A:AB:E7:95
                DirName:/C=US/ST=Montana/L=Bozeman/O=wolfSSL_3072/OU=Programming-3072/CN=www.wolfssl.com/emailAddress=info@wolfssl.com
                serial:C9:72:2A:EB:E8:4A:47:E7

            X509v3 Basic Constraints: 
                CA:TRUE
    Signature Algorithm: sha256WithRSAEncryption
         b3:20:83:3d:56:e2:b9:a6:8f:a9:46:fe:ad:9f:c7:d5:e2:dc:
         db:78:1e:4c:ca:d5:bd:38:5d:20:bc:18:f9:a0:33:7e:09:df:
         89:61:15:85:6d:80:78:3d:b4:6b:30:e6:f3:8a:8f:b2:5d:a0:
         6b:41:51:24:1c:4c:5e:db:0d:af:6d:56:12:1b:91:01:ed:0e:
         1c:1a:15:95:8f:99:1f:7f:e7:65:e7:0a:fe:24:0c:e0:a1:1f:
         16:7f:55:2e:48:98:97:3f:98:a7:90:1f:20:ec:b6:16:fa:2a:
         d2:91:3a:5f:83:df:cd:a3:51:37:19:69:c3:be:c9:35:bb:32:
         47:e9:e5:30:1f:cd:27:ac:4d:05:31:d9:06:33:5c:6e:f5:bb:
         22:b6:7c:68:3d:82:f2:c0:2e:00:34:d9:ed:ba:fc:f5:39:04:
         53:32:b7:bb:ff:c6:a1:bc:50:8e:d5:43:b6:48:07:8b:3d:47:
         4a:f7:22:f1:c3:4d:3d:db:d4:ca:e6:77:4d:94:7c:79:36:df:
         81:de:a7:fc:24:0e:7c:ec:72:2e:4d:b2:dc:7c:93:98:29:62:
         8b:67:0a:dd:c5:2f:ea:e1:b0:1d:d2:9d:91:74:30:3f:14:10:
         03:95:36:1b:02:2a:84:22:51:fa:26:fb:a4:a7:a7:d0:3f:12:
         0d:bc:14:c8:cd:60:a1:53:44:e3:5b:7a:63:ee:3e:50:f8:4a:
         ea:0a:2e:c2:9d:69:0c:4b:c6:ea:cd:b2:0d:d0:de:13:09:c9:
         f9:d5:7c:e4:f4:b1:55:8f:59:9e:86:b9:51:77:ad:35:06:35:
         fa:2c:76:06:41:b9:21:13:dd:94:02:34:66:e0:21:86:8e:08:
         9d:06:71:f2:bc:c3:34:10:ff:3d:d4:0c:70:8a:3c:bb:8a:ea:
         af:a1:b3:63:78:95:e4:c8:54:3c:87:c5:b4:97:7a:19:a3:59:
         75:ac:d6:5b:48:47:55:e8:24:20:fa:e8:2b:66:5d:6a:17:47:
         ce:38:93:a7:d1:ed
-----BEGIN CERTIFICATE-----
MIIFyjCCBDKgAwIBAgIJAMlyKuvoSkfnMA0GCSqGSIb3DQEBCwUAMIGeMQswCQYD
VQQGEwJVUzEQMA4GA1UECAwHTW9udGFuYTEQMA4GA1UEBwwHQm96ZW1hbjEVMBMG
A1UECgwMd29sZlNTTF8zMDcyMRkwFwYDVQQLDBBQcm9ncmFtbWluZy0zMDcyMRgw
FgYDVQQDDA93d3cud29sZnNzbC5jb20xHzAdBgkqhkiG9w0BCQEWEGluZm9Ad29s
ZnNzbC5jb20wHhcNMTcwODExMDUxNDQwWhcNMjAwNTA3MDUxNDQwWjCBnjELMAkG
A1UEBhMCVVMxEDAOBgNVBAgMB01vbnRhbmExEDAOBgNVBAcMB0JvemVtYW4xFTAT
BgNVBAoMDHdvbGZTU0xfMzA3MjEZMBcGA1UECwwQUHJvZ3JhbW1pbmctMzA3MjEY
MBYGA1UEAwwPd3d3LndvbGZzc2wuY29tMR8wHQYJKoZIhvcNAQkBFhBpbmZvQHdv
bGZzc2wuY29tMIIBojANBgkqhkiG9w0BAQEFAAOCAY8AMIIBigKCAYEAwQCwGgq6
iAPMktb3Lg2tvmD0pFOj3Pm2SGwhM898oMU1NxpffmUzB7Sa0S6y7TWhyGez2zkF
jaqBdACFInL4fTlHUwBWcc+C1/yifaBuEKKW28yO5C2dnVtKQ17LPUhyr/Rq2jQv
7ZnBG/tMVoqgZoz7XRDVWw+WBNnFsVX1iHbb09qh3Onu0Wfdv1RQB+8veftOWSq/
kg2Ab3vseWWawwjAT8ZrM7+dTa/5g68lQkyT8Z/WM33UhSp3RB0fytMiq2lQNdhH
PvecqOP5hGCeNhACXJwfMxzmu9BfKGMnTLUccbP0ejOqRXCpVIhwBw5FT7F/Kv2/
MdqXlshVSfLDtuYIeMpAiy5djk5sZWtX9B3uQbbtJA048kC9fVlrxdZn4hKbEAX+
60AdxXN1rOmcB2Ny5MUE/skXE78EAg5E6Z1Zbn5jOObbMSEoXoIgNq0m/rptr1cu
MqqmLFS0JVARrCWLhBt7Xa7f4cQyOrRgbBbvnCyoZ9BT9ciXmp6BJebHAgMBAAGj
ggEHMIIBAzAdBgNVHQ4EFgQU+riKDh3nKyK6LfRU3X7UY4qr55UwgdMGA1UdIwSB
yzCByIAU+riKDh3nKyK6LfRU3X7UY4qr55WhgaSkgaEwgZ4xCzAJBgNVBAYTAlVT
MRAwDgYDVQQIDAdNb250YW5hMRAwDgYDVQQHDAdCb3plbWFuMRUwEwYDVQQKDAx3
b2xmU1NMXzMwNzIxGTAXBgNVBAsMEFByb2dyYW1taW5nLTMwNzIxGDAWBgNVBAMM
D3d3dy53b2xmc3NsLmNvbTEfMB0GCSqGSIb3DQEJARYQaW5mb0B3b2xmc3NsLmNv
bYIJAMlyKuvoSkfnMAwGA1UdEwQFMAMBAf8wDQYJKoZIhvcNAQELBQADggGBALMg
gz1W4rmmj6lG/q2fx9Xi3Nt4HkzK1b04XSC8GPmgM34J34lhFYVtgHg9tGsw5vOK
j7JdoGtBUSQcTF7bDa9tVhIbkQHtDhwaFZWPmR9/52XnCv4kDOChHxZ/VS5ImJc/
mKeQHyDsthb6KtKROl+D382jUTcZacO+yTW7Mkfp5TAfzSesTQUx2QYzXG71uyK2
fGg9gvLALgA02e26/PU5BFMyt7v/xqG8UI7VQ7ZIB4s9R0r3IvHDTT3b1Mrmd02U
fHk234Hep/wkDnzsci5Nstx8k5gpYotnCt3FL+rhsB3SnZF0MD8UEAOVNhsCKoQi
Ufom+6Snp9A/Eg28FMjNYKFTRONbemPuPlD4SuoKLsKdaQxLxurNsg3Q3hMJyfnV
fOT0sVWPWZ6GuVF3rTUGNfosdgZBuSET3ZQCNGbgIYaOCJ0GcfK8wzQQ/z3UDHCK
PLuK6q+hs2N4leTIVDyHxbSXehmjWXWs1ltIR1XoJCD66CtmXWoXR844k6fR7Q==
-----END CERTIFICATE-----
