Certificate:
    Data:
        Version: 3 (0x2)
        Serial Number: 2 (0x2)
    Signature Algorithm: sha256WithRSAEncryption
        Issuer: C=US, ST=Montana, L=Bozeman, O=Sawtooth, OU=Consulting, CN=www.wolfssl.com/emailAddress=info@wolfssl.com
        Validity
            Not Before: Aug 11 20:07:37 2016 GMT
            Not After : May  8 20:07:37 2019 GMT
        Subject: C=US, ST=Montana, L=Bozeman, O=wolfSSL_revoked, OU=Support_revoked, CN=www.wolfssl.com/emailAddress=info@wolfssl.com
        Subject Public Key Info:
            Public Key Algorithm: rsaEncryption
                Public-Key: (2048 bit)
                Modulus:
                    00:b0:14:16:3a:43:dd:e1:50:45:4f:cf:80:b3:dd:
                    66:96:c7:e9:f4:dc:de:b6:6b:24:1b:76:48:ac:c6:
                    23:a5:a7:e4:05:19:bd:b7:f6:de:fa:ff:ed:5b:3c:
                    79:8a:a9:d5:f1:fb:eb:c8:b1:e4:b2:ab:52:72:89:
                    93:22:5c:ba:cd:8a:36:2a:2c:d1:40:ec:a8:66:0e:
                    c3:76:cd:e7:b3:a3:0a:1e:dd:4a:07:82:17:81:ba:
                    de:57:ce:b6:32:81:c7:bd:11:bb:e9:15:22:4e:e2:
                    16:ac:e3:d4:c0:68:88:6c:11:fc:c2:bd:1b:db:1d:
                    fd:e6:43:c7:1b:33:b8:f4:e5:1b:59:39:12:38:4d:
                    2d:9b:64:68:98:fc:8d:72:12:91:f2:24:25:6c:4c:
                    4a:48:57:92:00:cc:7e:d8:d4:3d:b8:1d:f2:9e:ea:
                    b2:23:0f:51:0f:11:41:1c:f5:27:00:1b:08:7a:12:
                    3a:05:5b:03:24:fe:b1:7b:20:fa:e4:a8:58:c6:ca:
                    ce:7f:be:95:01:12:9d:05:e6:39:13:1b:c0:3e:56:
                    2e:2b:9f:76:37:de:de:9b:e0:0d:7a:63:0d:a7:22:
                    58:db:31:c7:f7:b4:46:5c:ba:b6:4b:48:b1:18:9a:
                    68:b3:63:47:fd:af:12:5f:2f:fe:10:cb:58:2b:33:
                    68:85
                Exponent: 65537 (0x10001)
        X509v3 extensions:
            X509v3 Subject Key Identifier: 
                D8:09:2B:59:E1:2A:EE:D9:EE:40:AA:9C:AB:F0:5D:28:09:4F:22:BB
            X509v3 Authority Key Identifier: 
                keyid:27:8E:67:11:74:C3:26:1D:3F:ED:33:63:B3:A4:D8:1D:30:E5:E8:D5
                DirName:/C=US/ST=Montana/L=Bozeman/O=Sawtooth/OU=Consulting/CN=www.wolfssl.com/emailAddress=info@wolfssl.com
                serial:B7:B6:90:33:66:1B:6B:23

            X509v3 Basic Constraints: 
                CA:TRUE
    Signature Algorithm: sha256WithRSAEncryption
         79:13:f5:c1:05:42:12:3a:61:f2:f1:ac:05:6e:15:05:9b:ab:
         58:74:b2:3f:00:38:82:77:f7:9a:57:32:e2:af:66:3d:81:25:
         09:40:5a:d9:bc:d7:34:18:20:cd:89:b8:7e:c6:94:22:9a:28:
         fe:0e:55:73:1d:77:7c:c3:e6:c6:4b:f3:40:0c:8b:cc:93:c1:
         11:d1:0f:0e:50:0c:c2:b2:38:73:35:d1:db:d0:55:0d:6d:d7:
         33:15:13:e8:a0:77:f3:f1:4d:c2:24:4a:f6:45:4c:67:dd:fd:
         7e:46:b9:85:67:06:5a:4e:c1:4f:1f:94:f7:e6:b0:1a:b1:42:
         80:97:d2:7d:ed:8e:02:b2:2f:7e:c4:1b:60:d9:84:6e:dd:78:
         ef:41:82:81:05:6f:d7:b1:36:59:74:e6:ba:9c:5a:48:a7:58:
         d9:71:bd:16:53:32:21:55:89:75:7d:a0:48:12:a9:3d:77:73:
         51:a7:c3:e3:c9:df:e1:df:37:29:de:49:47:cf:7f:3c:30:86:
         d2:26:f9:45:dc:71:c1:b8:5b:9e:ef:05:64:5a:63:7c:c4:60:
         e2:67:f7:cd:e3:be:0b:d2:78:7f:66:c4:f5:c0:1c:6c:f1:e1:
         56:c3:01:07:c3:7d:50:73:1f:48:2c:89:88:fb:ec:b2:0b:aa:
         bb:0a:1f:f4
-----BEGIN CERTIFICATE-----
MIIErjCCA5agAwIBAgIBAjANBgkqhkiG9w0BAQsFADCBlDELMAkGA1UEBhMCVVMx
EDAOBgNVBAgMB01vbnRhbmExEDAOBgNVBAcMB0JvemVtYW4xETAPBgNVBAoMCFNh
d3Rvb3RoMRMwEQYDVQQLDApDb25zdWx0aW5nMRgwFgYDVQQDDA93d3cud29sZnNz
bC5jb20xHzAdBgkqhkiG9w0BCQEWEGluZm9Ad29sZnNzbC5jb20wHhcNMTYwODEx
MjAwNzM3WhcNMTkwNTA4MjAwNzM3WjCBoDELMAkGA1UEBhMCVVMxEDAOBgNVBAgM
B01vbnRhbmExEDAOBgNVBAcMB0JvemVtYW4xGDAWBgNVBAoMD3dvbGZTU0xfcmV2
b2tlZDEYMBYGA1UECwwPU3VwcG9ydF9yZXZva2VkMRgwFgYDVQQDDA93d3cud29s
ZnNzbC5jb20xHzAdBgkqhkiG9w0BCQEWEGluZm9Ad29sZnNzbC5jb20wggEiMA0G
CSqGSIb3DQEBAQUAA4IBDwAwggEKAoIBAQCwFBY6Q93hUEVPz4Cz3WaWx+n03N62
ayQbdkisxiOlp+QFGb239t76/+1bPHmKqdXx++vIseSyq1JyiZMiXLrNijYqLNFA
7KhmDsN2zeezowoe3UoHgheBut5XzrYygce9EbvpFSJO4has49TAaIhsEfzCvRvb
Hf3mQ8cbM7j05RtZORI4TS2bZGiY/I1yEpHyJCVsTEpIV5IAzH7Y1D24HfKe6rIj
D1EPEUEc9ScAGwh6EjoFWwMk/rF7IPrkqFjGys5/vpUBEp0F5jkTG8A+Vi4rn3Y3
3t6b4A16Yw2nIljbMcf3tEZcurZLSLEYmmizY0f9rxJfL/4Qy1grM2iFAgMBAAGj
gfwwgfkwHQYDVR0OBBYEFNgJK1nhKu7Z7kCqnKvwXSgJTyK7MIHJBgNVHSMEgcEw
gb6AFCeOZxF0wyYdP+0zY7Ok2B0w5ejVoYGapIGXMIGUMQswCQYDVQQGEwJVUzEQ
MA4GA1UECAwHTW9udGFuYTEQMA4GA1UEBwwHQm96ZW1hbjERMA8GA1UECgwIU2F3
dG9vdGgxEzARBgNVBAsMCkNvbnN1bHRpbmcxGDAWBgNVBAMMD3d3dy53b2xmc3Ns
LmNvbTEfMB0GCSqGSIb3DQEJARYQaW5mb0B3b2xmc3NsLmNvbYIJALe2kDNmG2sj
MAwGA1UdEwQFMAMBAf8wDQYJKoZIhvcNAQELBQADggEBAHkT9cEFQhI6YfLxrAVu
FQWbq1h0sj8AOIJ395pXMuKvZj2BJQlAWtm81zQYIM2JuH7GlCKaKP4OVXMdd3zD
5sZL80AMi8yTwRHRDw5QDMKyOHM10dvQVQ1t1zMVE+igd/PxTcIkSvZFTGfd/X5G
uYVnBlpOwU8flPfmsBqxQoCX0n3tjgKyL37EG2DZhG7deO9BgoEFb9exNll05rqc
WkinWNlxvRZTMiFViXV9oEgSqT13c1Gnw+PJ3+HfNyneSUfPfzwwhtIm+UXcccG4
W57vBWRaY3zEYOJn983jvgvSeH9mxPXAHGzx4VbDAQfDfVBzH0gsiYj77LILqrsK
H/Q=
-----END CERTIFICATE-----
Certificate:
    Data:
        Version: 3 (0x2)
        Serial Number:
            b7:b6:90:33:66:1b:6b:23
    Signature Algorithm: sha256WithRSAEncryption
        Issuer: C=US, ST=Montana, L=Bozeman, O=Sawtooth, OU=Consulting, CN=www.wolfssl.com/emailAddress=info@wolfssl.com
        Validity
            Not Before: Aug 11 20:07:37 2016 GMT
            Not After : May  8 20:07:37 2019 GMT
        Subject: C=US, ST=Montana, L=Bozeman, O=Sawtooth, OU=Consulting, CN=www.wolfssl.com/emailAddress=info@wolfssl.com
        Subject Public Key Info:
            Public Key Algorithm: rsaEncryption
                Public-Key: (2048 bit)
                Modulus:
                    00:bf:0c:ca:2d:14:b2:1e:84:42:5b:cd:38:1f:4a:
                    f2:4d:75:10:f1:b6:35:9f:df:ca:7d:03:98:d3:ac:
                    de:03:66:ee:2a:f1:d8:b0:7d:6e:07:54:0b:10:98:
                    21:4d:80:cb:12:20:e7:cc:4f:de:45:7d:c9:72:77:
                    32:ea:ca:90:bb:69:52:10:03:2f:a8:f3:95:c5:f1:
                    8b:62:56:1b:ef:67:6f:a4:10:41:95:ad:0a:9b:e3:
                    a5:c0:b0:d2:70:76:50:30:5b:a8:e8:08:2c:7c:ed:
                    a7:a2:7a:8d:38:29:1c:ac:c7:ed:f2:7c:95:b0:95:
                    82:7d:49:5c:38:cd:77:25:ef:bd:80:75:53:94:3c:
                    3d:ca:63:5b:9f:15:b5:d3:1d:13:2f:19:d1:3c:db:
                    76:3a:cc:b8:7d:c9:e5:c2:d7:da:40:6f:d8:21:dc:
                    73:1b:42:2d:53:9c:fe:1a:fc:7d:ab:7a:36:3f:98:
                    de:84:7c:05:67:ce:6a:14:38:87:a9:f1:8c:b5:68:
                    cb:68:7f:71:20:2b:f5:a0:63:f5:56:2f:a3:26:d2:
                    b7:6f:b1:5a:17:d7:38:99:08:fe:93:58:6f:fe:c3:
                    13:49:08:16:0b:a7:4d:67:00:52:31:67:23:4e:98:
                    ed:51:45:1d:b9:04:d9:0b:ec:d8:28:b3:4b:bd:ed:
                    36:79
                Exponent: 65537 (0x10001)
        X509v3 extensions:
            X509v3 Subject Key Identifier: 
                27:8E:67:11:74:C3:26:1D:3F:ED:33:63:B3:A4:D8:1D:30:E5:E8:D5
            X509v3 Authority Key Identifier: 
                keyid:27:8E:67:11:74:C3:26:1D:3F:ED:33:63:B3:A4:D8:1D:30:E5:E8:D5
                DirName:/C=US/ST=Montana/L=Bozeman/O=Sawtooth/OU=Consulting/CN=www.wolfssl.com/emailAddress=info@wolfssl.com
                serial:B7:B6:90:33:66:1B:6B:23

            X509v3 Basic Constraints: 
                CA:TRUE
    Signature Algorithm: sha256WithRSAEncryption
         0e:93:48:44:4a:72:96:60:71:25:82:a9:2c:ca:60:5b:f2:88:
         3e:cf:11:74:5a:11:4a:dc:d9:d8:f6:58:2c:05:d3:56:d9:e9:
         8f:37:ef:8e:3e:3b:ff:22:36:00:ca:d8:e2:96:3f:a7:d1:ed:
         1f:de:7a:b0:d7:8f:36:bd:41:55:1e:d4:b9:86:3b:87:25:69:
         35:60:48:d6:e4:5a:94:ce:a2:fa:70:38:36:c4:85:b4:4b:23:
         fe:71:9e:2f:db:06:c7:b5:9c:21:f0:3e:7c:eb:91:f8:5c:09:
         fd:84:43:a4:b3:4e:04:0c:22:31:71:6a:48:c8:ab:bb:e8:ce:
         fa:67:15:1a:3a:82:98:43:33:b5:0e:1f:1e:89:f8:37:de:1b:
         e6:b5:a0:f4:a2:8b:b7:1c:90:ba:98:6d:94:21:08:80:5d:f3:
         bf:66:ad:c9:72:28:7a:6a:48:ee:cf:63:69:31:8c:c5:8e:66:
         da:4b:78:65:e8:03:3a:4b:f8:cc:42:54:d3:52:5c:2d:04:ae:
         26:87:e1:7e:40:cb:45:41:16:4b:6e:a3:2e:4a:76:bd:29:7f:
         1c:53:37:06:ad:e9:5b:6a:d6:b7:4e:94:a2:7c:e8:ac:4e:a6:
         50:3e:2b:32:9e:68:42:1b:e4:59:67:61:ea:c7:9a:51:9c:1c:
         55:a3:77:76
-----BEGIN CERTIFICATE-----
MIIEqjCCA5KgAwIBAgIJALe2kDNmG2sjMA0GCSqGSIb3DQEBCwUAMIGUMQswCQYD
VQQGEwJVUzEQMA4GA1UECAwHTW9udGFuYTEQMA4GA1UEBwwHQm96ZW1hbjERMA8G
A1UECgwIU2F3dG9vdGgxEzARBgNVBAsMCkNvbnN1bHRpbmcxGDAWBgNVBAMMD3d3
dy53b2xmc3NsLmNvbTEfMB0GCSqGSIb3DQEJARYQaW5mb0B3b2xmc3NsLmNvbTAe
Fw0xNjA4MTEyMDA3MzdaFw0xOTA1MDgyMDA3MzdaMIGUMQswCQYDVQQGEwJVUzEQ
MA4GA1UECAwHTW9udGFuYTEQMA4GA1UEBwwHQm96ZW1hbjERMA8GA1UECgwIU2F3
dG9vdGgxEzARBgNVBAsMCkNvbnN1bHRpbmcxGDAWBgNVBAMMD3d3dy53b2xmc3Ns
LmNvbTEfMB0GCSqGSIb3DQEJARYQaW5mb0B3b2xmc3NsLmNvbTCCASIwDQYJKoZI
hvcNAQEBBQADggEPADCCAQoCggEBAL8Myi0Ush6EQlvNOB9K8k11EPG2NZ/fyn0D
mNOs3gNm7irx2LB9bgdUCxCYIU2AyxIg58xP3kV9yXJ3MurKkLtpUhADL6jzlcXx
i2JWG+9nb6QQQZWtCpvjpcCw0nB2UDBbqOgILHztp6J6jTgpHKzH7fJ8lbCVgn1J
XDjNdyXvvYB1U5Q8PcpjW58VtdMdEy8Z0TzbdjrMuH3J5cLX2kBv2CHccxtCLVOc
/hr8fat6Nj+Y3oR8BWfOahQ4h6nxjLVoy2h/cSAr9aBj9VYvoybSt2+xWhfXOJkI
/pNYb/7DE0kIFgunTWcAUjFnI06Y7VFFHbkE2Qvs2CizS73tNnkCAwEAAaOB/DCB
+TAdBgNVHQ4EFgQUJ45nEXTDJh0/7TNjs6TYHTDl6NUwgckGA1UdIwSBwTCBvoAU
J45nEXTDJh0/7TNjs6TYHTDl6NWhgZqkgZcwgZQxCzAJBgNVBAYTAlVTMRAwDgYD
VQQIDAdNb250YW5hMRAwDgYDVQQHDAdCb3plbWFuMREwDwYDVQQKDAhTYXd0b290
aDETMBEGA1UECwwKQ29uc3VsdGluZzEYMBYGA1UEAwwPd3d3LndvbGZzc2wuY29t
MR8wHQYJKoZIhvcNAQkBFhBpbmZvQHdvbGZzc2wuY29tggkAt7aQM2YbayMwDAYD
VR0TBAUwAwEB/zANBgkqhkiG9w0BAQsFAAOCAQEADpNIREpylmBxJYKpLMpgW/KI
Ps8RdFoRStzZ2PZYLAXTVtnpjzfvjj47/yI2AMrY4pY/p9HtH956sNePNr1BVR7U
uYY7hyVpNWBI1uRalM6i+nA4NsSFtEsj/nGeL9sGx7WcIfA+fOuR+FwJ/YRDpLNO
BAwiMXFqSMiru+jO+mcVGjqCmEMztQ4fHon4N94b5rWg9KKLtxyQuphtlCEIgF3z
v2atyXIoempI7s9jaTGMxY5m2kt4ZegDOkv4zEJU01JcLQSuJofhfkDLRUEWS26j
Lkp2vSl/HFM3Bq3pW2rWt06UonzorE6mUD4rMp5oQhvkWWdh6seaUZwcVaN3dg==
-----END CERTIFICATE-----
