Certificate:
    Data:
        Version: 3 (0x2)
        Serial Number: 1 (0x1)
    Signature Algorithm: sha256WithRSAEncryption
        Issuer: C=US, ST=Montana, L=Bozeman, O=Sawtooth, OU=Consulting, CN=www.wolfssl.com/emailAddress=info@wolfssl.com
        Validity
            Not Before: Aug 11 20:07:38 2016 GMT
            Not After : May  8 20:07:38 2019 GMT
        Subject: C=US, ST=Montana, L=Bozeman, O=Elliptic - RSAsig, OU=ECC-RSAsig, CN=www.wolfssl.com/emailAddress=info@wolfssl.com
        Subject Public Key Info:
            Public Key Algorithm: id-ecPublicKey
                Public-Key: (256 bit)
                pub: 
                    04:bb:33:ac:4c:27:50:4a:c6:4a:a5:04:c3:3c:de:
                    9f:36:db:72:2d:ce:94:ea:2b:fa:cb:20:09:39:2c:
                    16:e8:61:02:e9:af:4d:d3:02:93:9a:31:5b:97:92:
                    21:7f:f0:cf:18:da:91:11:02:34:86:e8:20:58:33:
                    0b:80:34:89:d8
                ASN1 OID: prime256v1
                NIST CURVE: P-256
        X509v3 extensions:
            X509v3 Subject Key Identifier: 
                5D:5D:26:EF:AC:7E:36:F9:9B:76:15:2B:4A:25:02:23:EF:B2:89:30
            X509v3 Authority Key Identifier: 
                keyid:27:8E:67:11:74:C3:26:1D:3F:ED:33:63:B3:A4:D8:1D:30:E5:E8:D5
                DirName:/C=US/ST=Montana/L=Bozeman/O=Sawtooth/OU=Consulting/CN=www.wolfssl.com/emailAddress=info@wolfssl.com
                serial:B7:B6:90:33:66:1B:6B:23

            X509v3 Basic Constraints: 
                CA:TRUE
    Signature Algorithm: sha256WithRSAEncryption
         ab:b7:78:c8:18:6e:6a:27:5d:bb:16:a1:d3:ae:b5:fd:46:50:
         cf:dc:82:f9:4a:19:ec:bf:44:cd:f5:1f:15:2c:5a:e9:65:27:
         b2:e1:88:62:0f:bc:a1:3c:95:fb:62:8a:71:e0:c6:22:ce:2e:
         00:ca:4e:7a:03:2a:12:90:98:7b:53:9f:46:a0:ff:6b:04:dc:
         2a:8d:bb:93:e7:b9:0b:d0:61:0f:62:97:18:99:bb:e7:1c:e3:
         a2:ab:70:8f:32:47:7f:1e:3b:cb:62:55:41:a4:af:1f:01:2c:
         9b:b2:cc:06:8d:28:04:57:5b:f6:32:b8:e8:18:b6:6b:a1:b9:
         aa:3f:49:ea:c1:02:c7:92:d9:c7:23:ea:a2:f7:70:a9:da:9e:
         5e:82:ef:30:07:c7:89:da:c9:e0:cf:ed:e9:4c:34:d4:72:0e:
         16:49:82:c5:a9:b4:a7:05:07:cc:5d:eb:b4:ef:9a:09:73:a2:
         d4:b6:c5:be:34:c0:c9:09:29:a5:d5:f1:e4:82:49:70:bf:75:
         79:15:cd:c1:c8:a3:4d:9b:b4:e2:94:5e:27:61:ea:34:69:88:
         47:bd:61:e9:0d:f3:95:8f:ff:53:e7:5c:11:e3:f4:d0:70:ad:
         9a:73:5d:29:30:fc:23:2e:c0:62:d4:d3:a8:ce:b2:e9:d3:b9:
         3f:10:0a:f2
-----BEGIN CERTIFICATE-----
MIID4DCCAsigAwIBAgIBATANBgkqhkiG9w0BAQsFADCBlDELMAkGA1UEBhMCVVMx
EDAOBgNVBAgMB01vbnRhbmExEDAOBgNVBAcMB0JvemVtYW4xETAPBgNVBAoMCFNh
d3Rvb3RoMRMwEQYDVQQLDApDb25zdWx0aW5nMRgwFgYDVQQDDA93d3cud29sZnNz
bC5jb20xHzAdBgkqhkiG9w0BCQEWEGluZm9Ad29sZnNzbC5jb20wHhcNMTYwODEx
MjAwNzM4WhcNMTkwNTA4MjAwNzM4WjCBnTELMAkGA1UEBhMCVVMxEDAOBgNVBAgM
B01vbnRhbmExEDAOBgNVBAcMB0JvemVtYW4xGjAYBgNVBAoMEUVsbGlwdGljIC0g
UlNBc2lnMRMwEQYDVQQLDApFQ0MtUlNBc2lnMRgwFgYDVQQDDA93d3cud29sZnNz
bC5jb20xHzAdBgkqhkiG9w0BCQEWEGluZm9Ad29sZnNzbC5jb20wWTATBgcqhkjO
PQIBBggqhkjOPQMBBwNCAAS7M6xMJ1BKxkqlBMM83p8223ItzpTqK/rLIAk5LBbo
YQLpr03TApOaMVuXkiF/8M8Y2pERAjSG6CBYMwuANInYo4H8MIH5MB0GA1UdDgQW
BBRdXSbvrH42+Zt2FStKJQIj77KJMDCByQYDVR0jBIHBMIG+gBQnjmcRdMMmHT/t
M2OzpNgdMOXo1aGBmqSBlzCBlDELMAkGA1UEBhMCVVMxEDAOBgNVBAgMB01vbnRh
bmExEDAOBgNVBAcMB0JvemVtYW4xETAPBgNVBAoMCFNhd3Rvb3RoMRMwEQYDVQQL
DApDb25zdWx0aW5nMRgwFgYDVQQDDA93d3cud29sZnNzbC5jb20xHzAdBgkqhkiG
9w0BCQEWEGluZm9Ad29sZnNzbC5jb22CCQC3tpAzZhtrIzAMBgNVHRMEBTADAQH/
MA0GCSqGSIb3DQEBCwUAA4IBAQCrt3jIGG5qJ127FqHTrrX9RlDP3IL5Shnsv0TN
9R8VLFrpZSey4YhiD7yhPJX7Yopx4MYizi4Ayk56AyoSkJh7U59GoP9rBNwqjbuT
57kL0GEPYpcYmbvnHOOiq3CPMkd/HjvLYlVBpK8fASybsswGjSgEV1v2MrjoGLZr
obmqP0nqwQLHktnHI+qi93Cp2p5egu8wB8eJ2sngz+3pTDTUcg4WSYLFqbSnBQfM
Xeu075oJc6LUtsW+NMDJCSml1fHkgklwv3V5Fc3ByKNNm7TilF4nYeo0aYhHvWHp
DfOVj/9T51wR4/TQcK2ac10pMPwjLsBi1NOozrLp07k/EAry
-----END CERTIFICATE-----
