Certificate:
    Data:
        Version: 3 (0x2)
        Serial Number: 13102646209338242161 (0xb5d5f34e7d397471)
    Signature Algorithm: sha256WithRSAEncryption
        Issuer: C=US, ST=Montana, L=Bozeman, O=wolfSSL_3072, OU=Programming-3072, CN=www.wolfssl.com/emailAddress=info@wolfssl.com
        Validity
            Not Before: Apr 13 15:23:09 2018 GMT
            Not After : Jan  7 15:23:09 2021 GMT
        Subject: C=US, ST=Montana, L=Bozeman, O=wolfSSL_3072, OU=Programming-3072, CN=www.wolfssl.com/emailAddress=info@wolfssl.com
        Subject Public Key Info:
            Public Key Algorithm: rsaEncryption
                Public-Key: (3072 bit)
                Modulus:
                    00:af:48:ed:92:25:bb:e3:2a:ea:05:68:44:8d:c0:
                    94:7f:06:d0:12:3e:ff:56:5d:7d:c9:75:a9:43:6a:
                    0b:73:6b:ff:20:a2:d8:a7:fa:b5:28:04:72:7e:e8:
                    16:a6:a9:03:61:e7:ec:85:67:38:6f:15:8c:81:91:
                    ca:92:d5:5f:41:11:71:e8:81:76:20:b6:a1:60:35:
                    84:33:9d:e6:a5:5d:75:c8:8f:df:03:9d:7e:c3:7c:
                    89:08:be:95:8f:39:9c:37:06:8f:53:6b:0c:e2:63:
                    dd:da:49:35:e4:52:8b:c1:69:00:12:c5:e2:74:b9:
                    be:10:a3:23:96:af:fa:34:54:e3:31:db:ac:ec:58:
                    2e:98:9e:11:1e:df:9f:a1:cc:44:1d:3e:b0:b4:37:
                    79:8c:c3:f9:19:9c:ff:08:79:ba:4b:0b:1c:7b:a7:
                    d6:d2:50:b6:d6:ba:af:95:50:97:10:9e:f9:6e:49:
                    d1:9d:68:f5:95:2b:09:27:a3:68:76:2c:c1:a8:aa:
                    ca:98:cb:c9:37:77:0c:fc:7c:3a:5d:81:56:5e:65:
                    ee:f0:e0:1f:1c:b6:c6:f7:dd:19:18:6b:a5:5b:a8:
                    71:7f:de:35:c9:19:26:b1:90:d6:6d:d0:b4:82:cd:
                    5f:1a:0c:66:b5:de:94:d3:bd:09:ff:fb:96:f0:b5:
                    32:fe:0e:c1:06:09:79:07:0e:cc:d9:f6:f4:d6:f6:
                    7b:a3:bb:82:37:b3:54:02:66:4f:b9:8a:20:f4:53:
                    35:23:ad:c8:40:c1:e0:50:98:51:20:52:ae:ef:a3:
                    1a:1c:2b:18:8c:c3:88:2e:91:a4:c1:dd:7b:20:b7:
                    9b:6a:6a:57:0a:59:f6:cd:b7:ea:42:d5:45:21:67:
                    37:0f:57:b0:bf:f5:bd:01:30:2c:ad:08:3f:77:10:
                    2c:b4:57:29:c0:8a:b3:b6:41:ea:c7:b3:96:19:9a:
                    4c:31:f6:bc:ce:1e:48:dd:ce:88:a5:86:b1:d0:dd:
                    a3:d4:7d:f8:d7:dc:d2:27:d0:45
                Exponent: 65537 (0x10001)
        X509v3 extensions:
            X509v3 Subject Key Identifier: 
                CC:81:03:F3:0A:30:C9:1E:66:9D:CE:D4:9C:2A:2A:A7:EB:53:93:5B
            X509v3 Authority Key Identifier: 
                keyid:CC:81:03:F3:0A:30:C9:1E:66:9D:CE:D4:9C:2A:2A:A7:EB:53:93:5B
                DirName:/C=US/ST=Montana/L=Bozeman/O=wolfSSL_3072/OU=Programming-3072/CN=www.wolfssl.com/emailAddress=info@wolfssl.com
                serial:B5:D5:F3:4E:7D:39:74:71

            X509v3 Basic Constraints: 
                CA:TRUE
    Signature Algorithm: sha256WithRSAEncryption
         a6:ac:1e:20:0c:ea:46:15:52:0e:14:39:36:f5:2a:44:39:e7:
         c5:6b:42:1c:00:7a:ca:58:b5:d0:17:44:70:ea:5c:45:4d:99:
         e9:2c:8d:89:1b:53:f9:5a:00:86:ed:b1:45:c4:71:c5:13:b2:
         ce:79:b5:27:b1:92:f0:fd:c6:e2:7e:71:e9:a1:0d:92:b5:a9:
         91:70:21:a0:32:60:05:98:0b:30:6e:26:81:4b:6a:90:e2:1b:
         e0:7d:c4:e9:ae:84:cb:38:e7:00:1a:c8:9a:98:5e:80:d4:c2:
         10:ad:4e:e8:9b:f9:e8:24:95:42:05:34:11:a8:2e:19:14:75:
         f9:ed:f9:e7:ae:20:fd:a3:8b:5e:87:dd:b9:fa:46:eb:26:67:
         61:40:7a:32:4f:55:d5:90:21:b7:dc:05:06:d8:a3:06:2e:44:
         ac:28:8a:79:6a:bc:2a:ef:47:44:b6:7c:98:a7:6a:99:6e:0e:
         55:23:a4:db:ff:95:f3:03:04:87:53:56:6d:95:c2:0e:61:90:
         4a:ca:54:76:a9:41:2f:3f:22:8e:33:a3:b2:e3:b5:04:c0:bd:
         f0:05:03:f1:6a:fa:39:b1:49:55:d4:bc:71:fb:22:79:4f:e5:
         68:fe:c7:e1:df:29:3b:26:82:a3:eb:a6:ba:0a:9e:c3:ef:53:
         a1:75:16:ce:2c:0b:8b:5d:a0:26:43:00:15:0f:12:72:ed:de:
         62:91:5c:83:c8:a2:b9:9d:be:f4:1f:5a:44:be:d2:86:0f:7c:
         11:16:1d:34:67:ef:03:2b:ff:81:83:cc:5d:a7:47:65:a5:cf:
         56:9f:e5:57:33:a0:3f:03:e9:48:46:e9:4c:6c:d2:b4:10:f0:
         0c:1f:ea:32:d1:6b:cb:97:27:ca:3b:24:52:21:c5:e3:ca:c3:
         c1:83:d7:91:03:61:20:af:e2:2c:94:fb:a2:39:16:6a:2f:78:
         f3:d7:ad:a7:a6:e1:7e:c0:98:2c:56:a1:84:14:b8:37:60:d3:
         e8:ef:1c:3e:69:2b
-----BEGIN CERTIFICATE-----
MIIFyjCCBDKgAwIBAgIJALXV8059OXRxMA0GCSqGSIb3DQEBCwUAMIGeMQswCQYD
VQQGEwJVUzEQMA4GA1UECAwHTW9udGFuYTEQMA4GA1UEBwwHQm96ZW1hbjEVMBMG
A1UECgwMd29sZlNTTF8zMDcyMRkwFwYDVQQLDBBQcm9ncmFtbWluZy0zMDcyMRgw
FgYDVQQDDA93d3cud29sZnNzbC5jb20xHzAdBgkqhkiG9w0BCQEWEGluZm9Ad29s
ZnNzbC5jb20wHhcNMTgwNDEzMTUyMzA5WhcNMjEwMTA3MTUyMzA5WjCBnjELMAkG
A1UEBhMCVVMxEDAOBgNVBAgMB01vbnRhbmExEDAOBgNVBAcMB0JvemVtYW4xFTAT
BgNVBAoMDHdvbGZTU0xfMzA3MjEZMBcGA1UECwwQUHJvZ3JhbW1pbmctMzA3MjEY
MBYGA1UEAwwPd3d3LndvbGZzc2wuY29tMR8wHQYJKoZIhvcNAQkBFhBpbmZvQHdv
bGZzc2wuY29tMIIBojANBgkqhkiG9w0BAQEFAAOCAY8AMIIBigKCAYEAr0jtkiW7
4yrqBWhEjcCUfwbQEj7/Vl19yXWpQ2oLc2v/IKLYp/q1KARyfugWpqkDYefshWc4
bxWMgZHKktVfQRFx6IF2ILahYDWEM53mpV11yI/fA51+w3yJCL6VjzmcNwaPU2sM
4mPd2kk15FKLwWkAEsXidLm+EKMjlq/6NFTjMdus7FgumJ4RHt+focxEHT6wtDd5
jMP5GZz/CHm6Swsce6fW0lC21rqvlVCXEJ75bknRnWj1lSsJJ6NodizBqKrKmMvJ
N3cM/Hw6XYFWXmXu8OAfHLbG990ZGGulW6hxf941yRkmsZDWbdC0gs1fGgxmtd6U
070J//uW8LUy/g7BBgl5Bw7M2fb01vZ7o7uCN7NUAmZPuYog9FM1I63IQMHgUJhR
IFKu76MaHCsYjMOILpGkwd17ILebampXCln2zbfqQtVFIWc3D1ewv/W9ATAsrQg/
dxAstFcpwIqztkHqx7OWGZpMMfa8zh5I3c6IpYax0N2j1H3419zSJ9BFAgMBAAGj
ggEHMIIBAzAdBgNVHQ4EFgQUzIED8wowyR5mnc7UnCoqp+tTk1swgdMGA1UdIwSB
yzCByIAUzIED8wowyR5mnc7UnCoqp+tTk1uhgaSkgaEwgZ4xCzAJBgNVBAYTAlVT
MRAwDgYDVQQIDAdNb250YW5hMRAwDgYDVQQHDAdCb3plbWFuMRUwEwYDVQQKDAx3
b2xmU1NMXzMwNzIxGTAXBgNVBAsMEFByb2dyYW1taW5nLTMwNzIxGDAWBgNVBAMM
D3d3dy53b2xmc3NsLmNvbTEfMB0GCSqGSIb3DQEJARYQaW5mb0B3b2xmc3NsLmNv
bYIJALXV8059OXRxMAwGA1UdEwQFMAMBAf8wDQYJKoZIhvcNAQELBQADggGBAKas
HiAM6kYVUg4UOTb1KkQ558VrQhwAespYtdAXRHDqXEVNmeksjYkbU/laAIbtsUXE
ccUTss55tSexkvD9xuJ+cemhDZK1qZFwIaAyYAWYCzBuJoFLapDiG+B9xOmuhMs4
5wAayJqYXoDUwhCtTuib+egklUIFNBGoLhkUdfnt+eeuIP2ji16H3bn6RusmZ2FA
ejJPVdWQIbfcBQbYowYuRKwoinlqvCrvR0S2fJinapluDlUjpNv/lfMDBIdTVm2V
wg5hkErKVHapQS8/Io4zo7LjtQTAvfAFA/Fq+jmxSVXUvHH7InlP5Wj+x+HfKTsm
gqPrproKnsPvU6F1Fs4sC4tdoCZDABUPEnLt3mKRXIPIormdvvQfWkS+0oYPfBEW
HTRn7wMr/4GDzF2nR2Wlz1af5VczoD8D6UhG6Uxs0rQQ8Awf6jLRa8uXJ8o7JFIh
xePKw8GD15EDYSCv4iyU+6I5FmovePPXraem4X7AmCxWoYQUuDdg0+jvHD5pKw==
-----END CERTIFICATE-----
