Certificate:
    Data:
        Version: 3 (0x2)
        Serial Number:
            ef:46:c7:a4:9b:bb:60:d3
    Signature Algorithm: ecdsa-with-SHA256
        Issuer: C=US, ST=Washington, L=Seattle, O=Eliptic, OU=ECC, CN=www.wolfssl.com/emailAddress=info@wolfssl.com
        Validity
            Not Before: Aug 11 20:07:38 2016 GMT
            Not After : May  8 20:07:38 2019 GMT
        Subject: C=US, ST=Washington, L=Seattle, O=Eliptic, OU=ECC, CN=www.wolfssl.com/emailAddress=info@wolfssl.com
        Subject Public Key Info:
            Public Key Algorithm: id-ecPublicKey
                Public-Key: (256 bit)
                pub: 
                    04:bb:33:ac:4c:27:50:4a:c6:4a:a5:04:c3:3c:de:
                    9f:36:db:72:2d:ce:94:ea:2b:fa:cb:20:09:39:2c:
                    16:e8:61:02:e9:af:4d:d3:02:93:9a:31:5b:97:92:
                    21:7f:f0:cf:18:da:91:11:02:34:86:e8:20:58:33:
                    0b:80:34:89:d8
                ASN1 OID: prime256v1
                NIST CURVE: P-256
        X509v3 extensions:
            X509v3 Subject Key Identifier: 
                5D:5D:26:EF:AC:7E:36:F9:9B:76:15:2B:4A:25:02:23:EF:B2:89:30
            X509v3 Authority Key Identifier: 
                keyid:5D:5D:26:EF:AC:7E:36:F9:9B:76:15:2B:4A:25:02:23:EF:B2:89:30
                DirName:/C=US/ST=Washington/L=Seattle/O=Eliptic/OU=ECC/CN=www.wolfssl.com/emailAddress=info@wolfssl.com
                serial:EF:46:C7:A4:9B:BB:60:D3

            X509v3 Basic Constraints: 
                CA:TRUE
    Signature Algorithm: ecdsa-with-SHA256
         30:46:02:21:00:f1:d0:a6:3e:83:33:24:d1:7a:05:5f:1e:0e:
         bd:7d:6b:33:e9:f2:86:f3:f3:3d:a9:ef:6a:87:31:b3:b7:7e:
         50:02:21:00:f0:60:dd:ce:a2:db:56:ec:d9:f4:e4:e3:25:d4:
         b0:c9:25:7d:ca:7a:5d:ba:c4:b2:f6:7d:04:c7:bd:62:c9:20
-----BEGIN CERTIFICATE-----
MIIDEDCCArWgAwIBAgIJAO9Gx6Sbu2DTMAoGCCqGSM49BAMCMIGPMQswCQYDVQQG
EwJVUzETMBEGA1UECAwKV2FzaGluZ3RvbjEQMA4GA1UEBwwHU2VhdHRsZTEQMA4G
A1UECgwHRWxpcHRpYzEMMAoGA1UECwwDRUNDMRgwFgYDVQQDDA93d3cud29sZnNz
bC5jb20xHzAdBgkqhkiG9w0BCQEWEGluZm9Ad29sZnNzbC5jb20wHhcNMTYwODEx
MjAwNzM4WhcNMTkwNTA4MjAwNzM4WjCBjzELMAkGA1UEBhMCVVMxEzARBgNVBAgM
Cldhc2hpbmd0b24xEDAOBgNVBAcMB1NlYXR0bGUxEDAOBgNVBAoMB0VsaXB0aWMx
DDAKBgNVBAsMA0VDQzEYMBYGA1UEAwwPd3d3LndvbGZzc2wuY29tMR8wHQYJKoZI
hvcNAQkBFhBpbmZvQHdvbGZzc2wuY29tMFkwEwYHKoZIzj0CAQYIKoZIzj0DAQcD
QgAEuzOsTCdQSsZKpQTDPN6fNttyLc6U6iv6yyAJOSwW6GEC6a9N0wKTmjFbl5Ih
f/DPGNqREQI0huggWDMLgDSJ2KOB9zCB9DAdBgNVHQ4EFgQUXV0m76x+NvmbdhUr
SiUCI++yiTAwgcQGA1UdIwSBvDCBuYAUXV0m76x+NvmbdhUrSiUCI++yiTChgZWk
gZIwgY8xCzAJBgNVBAYTAlVTMRMwEQYDVQQIDApXYXNoaW5ndG9uMRAwDgYDVQQH
DAdTZWF0dGxlMRAwDgYDVQQKDAdFbGlwdGljMQwwCgYDVQQLDANFQ0MxGDAWBgNV
BAMMD3d3dy53b2xmc3NsLmNvbTEfMB0GCSqGSIb3DQEJARYQaW5mb0B3b2xmc3Ns
LmNvbYIJAO9Gx6Sbu2DTMAwGA1UdEwQFMAMBAf8wCgYIKoZIzj0EAwIDSQAwRgIh
APHQpj6DMyTRegVfHg69fWsz6fKG8/M9qe9qhzGzt35QAiEA8GDdzqLbVuzZ9OTj
JdSwySV9ynpdusSy9n0Ex71iySA=
-----END CERTIFICATE-----
