Certificate:
    Data:
        Version: 3 (0x2)
        Serial Number: 107 (0x6b)
    Signature Algorithm: sha1WithRSAEncryption
        Issuer: C=US, ST=Washington, L=Seattle, O=wolfSSL Inc., OU=Engineering, CN=Server 127 CA/emailAddress=info@wolfssl.com
        Validity
            Not Before: Apr 13 15:23:10 2018 GMT
            Not After : Jan  7 15:23:10 2021 GMT
        Subject: C=US, ST=Washington, L=Seattle, O=wolfSSL Inc., OU=Engineering, CN=Server 127/emailAddress=info@wolfssl.com
        Subject Public Key Info:
            Public Key Algorithm: rsaEncryption
                Public-Key: (2048 bit)
                Modulus:
                    00:c0:95:08:e1:57:41:f2:71:6d:b7:d2:45:41:27:
                    01:65:c6:45:ae:f2:bc:24:30:b8:95:ce:2f:4e:d6:
                    f6:1c:88:bc:7c:9f:fb:a8:67:7f:fe:5c:9c:51:75:
                    f7:8a:ca:07:e7:35:2f:8f:e1:bd:7b:c0:2f:7c:ab:
                    64:a8:17:fc:ca:5d:7b:ba:e0:21:e5:72:2e:6f:2e:
                    86:d8:95:73:da:ac:1b:53:b9:5f:3f:d7:19:0d:25:
                    4f:e1:63:63:51:8b:0b:64:3f:ad:43:b8:a5:1c:5c:
                    34:b3:ae:00:a0:63:c5:f6:7f:0b:59:68:78:73:a6:
                    8c:18:a9:02:6d:af:c3:19:01:2e:b8:10:e3:c6:cc:
                    40:b4:69:a3:46:33:69:87:6e:c4:bb:17:a6:f3:e8:
                    dd:ad:73:bc:7b:2f:21:b5:fd:66:51:0c:bd:54:b3:
                    e1:6d:5f:1c:bc:23:73:d1:09:03:89:14:d2:10:b9:
                    64:c3:2a:d0:a1:96:4a:bc:e1:d4:1a:5b:c7:a0:c0:
                    c1:63:78:0f:44:37:30:32:96:80:32:23:95:a1:77:
                    ba:13:d2:97:73:e2:5d:25:c9:6a:0d:c3:39:60:a4:
                    b4:b0:69:42:42:09:e9:d8:08:bc:33:20:b3:58:22:
                    a7:aa:eb:c4:e1:e6:61:83:c5:d2:96:df:d9:d0:4f:
                    ad:d7
                Exponent: 65537 (0x10001)
        X509v3 extensions:
            X509v3 Subject Key Identifier: 
                B3:11:32:C9:92:98:84:E2:C9:F8:D0:3B:6E:03:42:CA:1F:0E:8E:3C
            X509v3 Authority Key Identifier: 
                keyid:B3:11:32:C9:92:98:84:E2:C9:F8:D0:3B:6E:03:42:CA:1F:0E:8E:3C
                DirName:/C=US/ST=Montana/L=Bozeman/O=Sawtooth/OU=Consulting/CN=www.wolfssl.com/emailAddress=info@wolfssl.com
                serial:6A

            X509v3 Basic Constraints: 
                CA:FALSE
    Signature Algorithm: sha1WithRSAEncryption
         19:04:0b:64:d4:fa:c8:d2:aa:93:57:28:ad:c4:e4:70:f9:25:
         6c:06:f3:21:34:a9:af:03:aa:1d:02:b2:e4:34:df:a1:74:88:
         7f:8b:88:64:8c:6d:19:a6:4a:ee:62:80:8a:4c:17:1b:85:57:
         e4:f0:b7:8d:66:9c:de:b7:bd:ed:2a:82:5c:d1:1e:ba:29:9d:
         92:b5:df:cf:8e:48:12:0a:d3:16:5f:f3:e2:db:c0:d1:42:e4:
         6b:3c:99:d3:fb:fc:87:9d:b0:44:5c:b5:8d:d8:e1:6c:58:df:
         37:b4:62:53:f8:85:7a:89:a0:40:f7:9f:f6:57:7c:9b:12:8e:
         b4:46:2e:04:10:fd:8b:4b:ae:e6:1d:b7:63:3f:49:a9:ff:8a:
         f4:77:d6:90:c9:07:9b:d0:1e:b8:8b:ea:5a:49:a4:ae:50:3a:
         7f:9e:01:46:22:7f:23:46:d2:8e:75:46:99:6b:3b:8c:f8:25:
         3a:17:a2:6d:b6:a1:b8:ba:c4:a7:75:a3:6a:3c:5f:fa:0a:e0:
         ab:08:ab:26:d0:78:55:57:67:d2:e8:6f:c9:89:c1:9c:6f:54:
         47:af:13:9c:3e:e1:ac:00:c9:63:95:22:b9:ec:54:31:ac:26:
         1e:ab:e3:a4:04:5c:6e:9d:7a:6b:c1:e7:22:a0:b5:aa:42:35:
         81:94:d0:45
-----BEGIN CERTIFICATE-----
MIIEoDCCA4igAwIBAgIBazANBgkqhkiG9w0BAQUFADCBmjELMAkGA1UEBhMCVVMx
EzARBgNVBAgMCldhc2hpbmd0b24xEDAOBgNVBAcMB1NlYXR0bGUxFTATBgNVBAoM
DHdvbGZTU0wgSW5jLjEUMBIGA1UECwwLRW5naW5lZXJpbmcxFjAUBgNVBAMMDVNl
cnZlciAxMjcgQ0ExHzAdBgkqhkiG9w0BCQEWEGluZm9Ad29sZnNzbC5jb20wHhcN
MTgwNDEzMTUyMzEwWhcNMjEwMTA3MTUyMzEwWjCBlzELMAkGA1UEBhMCVVMxEzAR
BgNVBAgMCldhc2hpbmd0b24xEDAOBgNVBAcMB1NlYXR0bGUxFTATBgNVBAoMDHdv
bGZTU0wgSW5jLjEUMBIGA1UECwwLRW5naW5lZXJpbmcxEzARBgNVBAMMClNlcnZl
ciAxMjcxHzAdBgkqhkiG9w0BCQEWEGluZm9Ad29sZnNzbC5jb20wggEiMA0GCSqG
SIb3DQEBAQUAA4IBDwAwggEKAoIBAQDAlQjhV0HycW230kVBJwFlxkWu8rwkMLiV
zi9O1vYciLx8n/uoZ3/+XJxRdfeKygfnNS+P4b17wC98q2SoF/zKXXu64CHlci5v
LobYlXParBtTuV8/1xkNJU/hY2NRiwtkP61DuKUcXDSzrgCgY8X2fwtZaHhzpowY
qQJtr8MZAS64EOPGzEC0aaNGM2mHbsS7F6bz6N2tc7x7LyG1/WZRDL1Us+FtXxy8
I3PRCQOJFNIQuWTDKtChlkq84dQaW8egwMFjeA9ENzAyloAyI5Whd7oT0pdz4l0l
yWoNwzlgpLSwaUJCCenYCLwzILNYIqeq68Th5mGDxdKW39nQT63XAgMBAAGjgfEw
ge4wHQYDVR0OBBYEFLMRMsmSmITiyfjQO24DQsofDo48MIHBBgNVHSMEgbkwgbaA
FLMRMsmSmITiyfjQO24DQsofDo48oYGapIGXMIGUMQswCQYDVQQGEwJVUzEQMA4G
A1UECAwHTW9udGFuYTEQMA4GA1UEBwwHQm96ZW1hbjERMA8GA1UECgwIU2F3dG9v
dGgxEzARBgNVBAsMCkNvbnN1bHRpbmcxGDAWBgNVBAMMD3d3dy53b2xmc3NsLmNv
bTEfMB0GCSqGSIb3DQEJARYQaW5mb0B3b2xmc3NsLmNvbYIBajAJBgNVHRMEAjAA
MA0GCSqGSIb3DQEBBQUAA4IBAQAZBAtk1PrI0qqTVyitxORw+SVsBvMhNKmvA6od
ArLkNN+hdIh/i4hkjG0ZpkruYoCKTBcbhVfk8LeNZpzet73tKoJc0R66KZ2Std/P
jkgSCtMWX/Pi28DRQuRrPJnT+/yHnbBEXLWN2OFsWN83tGJT+IV6iaBA95/2V3yb
Eo60Ri4EEP2LS67mHbdjP0mp/4r0d9aQyQeb0B64i+paSaSuUDp/ngFGIn8jRtKO
dUaZazuM+CU6F6JttqG4usSndaNqPF/6CuCrCKsm0HhVV2fS6G/JicGcb1RHrxOc
PuGsAMljlSK57FQxrCYeq+OkBFxunXprwecioLWqQjWBlNBF
-----END CERTIFICATE-----
Certificate:
    Data:
        Version: 3 (0x2)
        Serial Number: 106 (0x6a)
    Signature Algorithm: sha1WithRSAEncryption
        Issuer: C=US, ST=Montana, L=Bozeman, O=Sawtooth, OU=Consulting, CN=www.wolfssl.com/emailAddress=info@wolfssl.com
        Validity
            Not Before: Apr 13 15:23:10 2018 GMT
            Not After : Jan  7 15:23:10 2021 GMT
        Subject: C=US, ST=Washington, L=Seattle, O=wolfSSL Inc., OU=Engineering, CN=Server 127 CA/emailAddress=info@wolfssl.com
        Subject Public Key Info:
            Public Key Algorithm: rsaEncryption
                Public-Key: (2048 bit)
                Modulus:
                    00:c0:95:08:e1:57:41:f2:71:6d:b7:d2:45:41:27:
                    01:65:c6:45:ae:f2:bc:24:30:b8:95:ce:2f:4e:d6:
                    f6:1c:88:bc:7c:9f:fb:a8:67:7f:fe:5c:9c:51:75:
                    f7:8a:ca:07:e7:35:2f:8f:e1:bd:7b:c0:2f:7c:ab:
                    64:a8:17:fc:ca:5d:7b:ba:e0:21:e5:72:2e:6f:2e:
                    86:d8:95:73:da:ac:1b:53:b9:5f:3f:d7:19:0d:25:
                    4f:e1:63:63:51:8b:0b:64:3f:ad:43:b8:a5:1c:5c:
                    34:b3:ae:00:a0:63:c5:f6:7f:0b:59:68:78:73:a6:
                    8c:18:a9:02:6d:af:c3:19:01:2e:b8:10:e3:c6:cc:
                    40:b4:69:a3:46:33:69:87:6e:c4:bb:17:a6:f3:e8:
                    dd:ad:73:bc:7b:2f:21:b5:fd:66:51:0c:bd:54:b3:
                    e1:6d:5f:1c:bc:23:73:d1:09:03:89:14:d2:10:b9:
                    64:c3:2a:d0:a1:96:4a:bc:e1:d4:1a:5b:c7:a0:c0:
                    c1:63:78:0f:44:37:30:32:96:80:32:23:95:a1:77:
                    ba:13:d2:97:73:e2:5d:25:c9:6a:0d:c3:39:60:a4:
                    b4:b0:69:42:42:09:e9:d8:08:bc:33:20:b3:58:22:
                    a7:aa:eb:c4:e1:e6:61:83:c5:d2:96:df:d9:d0:4f:
                    ad:d7
                Exponent: 65537 (0x10001)
        X509v3 extensions:
            X509v3 Subject Key Identifier: 
                B3:11:32:C9:92:98:84:E2:C9:F8:D0:3B:6E:03:42:CA:1F:0E:8E:3C
            X509v3 Authority Key Identifier: 
                keyid:27:8E:67:11:74:C3:26:1D:3F:ED:33:63:B3:A4:D8:1D:30:E5:E8:D5
                DirName:/C=US/ST=Montana/L=Bozeman/O=Sawtooth/OU=Consulting/CN=www.wolfssl.com/emailAddress=info@wolfssl.com
                serial:86:FF:F5:8E:10:DE:B8:FB

            X509v3 Basic Constraints: 
                CA:TRUE, pathlen:127
            X509v3 Key Usage: 
                Certificate Sign, CRL Sign
    Signature Algorithm: sha1WithRSAEncryption
         44:50:b4:96:71:e5:9a:61:36:7b:c7:fa:05:88:39:e9:46:5b:
         b0:b3:63:0d:5a:1b:c1:70:fd:d7:6a:9c:9d:0c:95:b7:ad:4f:
         9b:c2:34:24:90:d9:4b:bf:07:f7:18:d7:b8:13:3a:d5:01:8d:
         e6:b6:15:ff:a4:94:36:4d:7b:b6:03:2f:12:ae:40:e1:ed:be:
         95:2d:2c:6c:22:9e:3e:87:12:7c:5c:bc:95:90:2a:cb:e3:e1:
         85:3e:60:4f:09:d6:44:83:15:7e:4f:c8:bb:b7:83:c9:13:17:
         9b:60:56:47:7c:cf:6d:83:5b:9e:9a:84:f5:fd:2b:aa:55:7c:
         b7:fc:66:b5:49:66:77:e4:48:b6:3a:b2:d5:6f:a8:d8:25:a3:
         a2:fa:4d:6f:ac:7a:b3:17:a9:5d:60:52:57:80:f3:5e:3b:2b:
         c2:b5:85:af:f0:a2:c8:0b:ff:66:11:90:d9:25:12:e1:43:04:
         c5:21:1f:b7:24:8a:c3:6d:a9:1d:32:de:72:5b:7e:fe:a2:aa:
         6f:54:e3:ca:25:fd:f2:86:41:4b:3c:eb:b6:0b:36:fe:93:14:
         5e:36:4e:79:22:15:45:64:a1:aa:78:d9:51:79:78:2f:72:f6:
         91:bd:f7:4b:d2:4a:24:ff:db:2d:4c:8f:ea:5d:b0:db:7a:cf:
         b9:ad:43:f5
-----BEGIN CERTIFICATE-----
MIIEujCCA6KgAwIBAgIBajANBgkqhkiG9w0BAQUFADCBlDELMAkGA1UEBhMCVVMx
EDAOBgNVBAgMB01vbnRhbmExEDAOBgNVBAcMB0JvemVtYW4xETAPBgNVBAoMCFNh
d3Rvb3RoMRMwEQYDVQQLDApDb25zdWx0aW5nMRgwFgYDVQQDDA93d3cud29sZnNz
bC5jb20xHzAdBgkqhkiG9w0BCQEWEGluZm9Ad29sZnNzbC5jb20wHhcNMTgwNDEz
MTUyMzEwWhcNMjEwMTA3MTUyMzEwWjCBmjELMAkGA1UEBhMCVVMxEzARBgNVBAgM
Cldhc2hpbmd0b24xEDAOBgNVBAcMB1NlYXR0bGUxFTATBgNVBAoMDHdvbGZTU0wg
SW5jLjEUMBIGA1UECwwLRW5naW5lZXJpbmcxFjAUBgNVBAMMDVNlcnZlciAxMjcg
Q0ExHzAdBgkqhkiG9w0BCQEWEGluZm9Ad29sZnNzbC5jb20wggEiMA0GCSqGSIb3
DQEBAQUAA4IBDwAwggEKAoIBAQDAlQjhV0HycW230kVBJwFlxkWu8rwkMLiVzi9O
1vYciLx8n/uoZ3/+XJxRdfeKygfnNS+P4b17wC98q2SoF/zKXXu64CHlci5vLobY
lXParBtTuV8/1xkNJU/hY2NRiwtkP61DuKUcXDSzrgCgY8X2fwtZaHhzpowYqQJt
r8MZAS64EOPGzEC0aaNGM2mHbsS7F6bz6N2tc7x7LyG1/WZRDL1Us+FtXxy8I3PR
CQOJFNIQuWTDKtChlkq84dQaW8egwMFjeA9ENzAyloAyI5Whd7oT0pdz4l0lyWoN
wzlgpLSwaUJCCenYCLwzILNYIqeq68Th5mGDxdKW39nQT63XAgMBAAGjggENMIIB
CTAdBgNVHQ4EFgQUsxEyyZKYhOLJ+NA7bgNCyh8OjjwwgckGA1UdIwSBwTCBvoAU
J45nEXTDJh0/7TNjs6TYHTDl6NWhgZqkgZcwgZQxCzAJBgNVBAYTAlVTMRAwDgYD
VQQIDAdNb250YW5hMRAwDgYDVQQHDAdCb3plbWFuMREwDwYDVQQKDAhTYXd0b290
aDETMBEGA1UECwwKQ29uc3VsdGluZzEYMBYGA1UEAwwPd3d3LndvbGZzc2wuY29t
MR8wHQYJKoZIhvcNAQkBFhBpbmZvQHdvbGZzc2wuY29tggkAhv/1jhDeuPswDwYD
VR0TBAgwBgEB/wIBfzALBgNVHQ8EBAMCAQYwDQYJKoZIhvcNAQEFBQADggEBAERQ
tJZx5ZphNnvH+gWIOelGW7CzYw1aG8Fw/ddqnJ0MlbetT5vCNCSQ2Uu/B/cY17gT
OtUBjea2Ff+klDZNe7YDLxKuQOHtvpUtLGwinj6HEnxcvJWQKsvj4YU+YE8J1kSD
FX5PyLu3g8kTF5tgVkd8z22DW56ahPX9K6pVfLf8ZrVJZnfkSLY6stVvqNglo6L6
TW+serMXqV1gUleA8147K8K1ha/wosgL/2YRkNklEuFDBMUhH7ckisNtqR0y3nJb
fv6iqm9U48ol/fKGQUs867YLNv6TFF42TnkiFUVkoap42VF5eC9y9pG990vSSiT/
2y1Mj+pdsNt6z7mtQ/U=
-----END CERTIFICATE-----
