Certificate:
    Data:
        Version: 3 (0x2)
        Serial Number: 104 (0x68)
    Signature Algorithm: sha1WithRSAEncryption
        Issuer: C=US, ST=Washington, L=Seattle, O=wolfSSL Inc., OU=Engineering, CN=Server 1-0 CA/emailAddress=info@wolfssl.com
        Validity
            Not Before: Apr 13 15:23:10 2018 GMT
            Not After : Jan  7 15:23:10 2021 GMT
        Subject: C=US, ST=Washington, L=Seattle, O=wolfSSL Inc., OU=Engineering, CN=Server 1-0/emailAddress=info@wolfssl.com
        Subject Public Key Info:
            Public Key Algorithm: rsaEncryption
                Public-Key: (2048 bit)
                Modulus:
                    00:c0:95:08:e1:57:41:f2:71:6d:b7:d2:45:41:27:
                    01:65:c6:45:ae:f2:bc:24:30:b8:95:ce:2f:4e:d6:
                    f6:1c:88:bc:7c:9f:fb:a8:67:7f:fe:5c:9c:51:75:
                    f7:8a:ca:07:e7:35:2f:8f:e1:bd:7b:c0:2f:7c:ab:
                    64:a8:17:fc:ca:5d:7b:ba:e0:21:e5:72:2e:6f:2e:
                    86:d8:95:73:da:ac:1b:53:b9:5f:3f:d7:19:0d:25:
                    4f:e1:63:63:51:8b:0b:64:3f:ad:43:b8:a5:1c:5c:
                    34:b3:ae:00:a0:63:c5:f6:7f:0b:59:68:78:73:a6:
                    8c:18:a9:02:6d:af:c3:19:01:2e:b8:10:e3:c6:cc:
                    40:b4:69:a3:46:33:69:87:6e:c4:bb:17:a6:f3:e8:
                    dd:ad:73:bc:7b:2f:21:b5:fd:66:51:0c:bd:54:b3:
                    e1:6d:5f:1c:bc:23:73:d1:09:03:89:14:d2:10:b9:
                    64:c3:2a:d0:a1:96:4a:bc:e1:d4:1a:5b:c7:a0:c0:
                    c1:63:78:0f:44:37:30:32:96:80:32:23:95:a1:77:
                    ba:13:d2:97:73:e2:5d:25:c9:6a:0d:c3:39:60:a4:
                    b4:b0:69:42:42:09:e9:d8:08:bc:33:20:b3:58:22:
                    a7:aa:eb:c4:e1:e6:61:83:c5:d2:96:df:d9:d0:4f:
                    ad:d7
                Exponent: 65537 (0x10001)
        X509v3 extensions:
            X509v3 Subject Key Identifier: 
                B3:11:32:C9:92:98:84:E2:C9:F8:D0:3B:6E:03:42:CA:1F:0E:8E:3C
            X509v3 Authority Key Identifier: 
                keyid:B3:11:32:C9:92:98:84:E2:C9:F8:D0:3B:6E:03:42:CA:1F:0E:8E:3C
                DirName:/C=US/ST=Washington/L=Seattle/O=wolfSSL Inc./OU=Engineering/CN=Server 1 CA/emailAddress=info@wolfssl.com
                serial:67

            X509v3 Basic Constraints: 
                CA:FALSE
    Signature Algorithm: sha1WithRSAEncryption
         88:e6:c7:a7:fc:33:31:f6:e3:1d:fe:92:c5:69:59:07:cb:70:
         7a:18:8a:cc:4c:10:7a:6b:f4:1a:32:78:1f:55:90:72:8d:e2:
         78:93:86:b6:9d:2f:3b:12:cc:f6:81:87:59:0b:54:61:b4:ea:
         da:7a:4c:27:82:49:89:78:41:f4:57:58:b2:17:fc:f1:35:c7:
         20:a9:51:84:21:e9:4a:68:5c:1b:1d:2c:1a:b3:47:93:27:59:
         a4:e4:73:e8:b8:30:5b:b7:5f:1f:10:07:59:0c:bd:d4:a6:e1:
         7c:d6:91:23:4e:b9:fd:85:22:4c:06:f3:08:58:18:48:85:db:
         46:40:b1:d7:9f:13:b5:aa:34:a5:b9:38:ff:b7:08:1a:5e:e3:
         76:80:16:6c:b9:8e:57:51:dc:5e:a1:03:e6:e9:ee:ac:a2:d0:
         26:3d:ff:97:96:0b:66:06:9a:c9:26:4a:c1:a3:02:f5:47:d5:
         87:d9:ea:a8:af:21:70:77:f8:9b:15:ec:c0:ee:fd:d4:16:b7:
         8a:4d:c0:8f:25:2d:6b:dd:dd:6f:4c:7f:b5:6c:59:b7:a4:7c:
         e9:52:a9:bc:79:8a:62:7c:ab:a1:ec:0b:fa:5b:6e:f8:db:11:
         72:a1:e9:c6:4a:83:82:64:ea:4e:13:44:d4:04:17:c3:ee:8d:
         ea:4b:9b:69
-----BEGIN CERTIFICATE-----
MIIEpDCCA4ygAwIBAgIBaDANBgkqhkiG9w0BAQUFADCBmjELMAkGA1UEBhMCVVMx
EzARBgNVBAgMCldhc2hpbmd0b24xEDAOBgNVBAcMB1NlYXR0bGUxFTATBgNVBAoM
DHdvbGZTU0wgSW5jLjEUMBIGA1UECwwLRW5naW5lZXJpbmcxFjAUBgNVBAMMDVNl
cnZlciAxLTAgQ0ExHzAdBgkqhkiG9w0BCQEWEGluZm9Ad29sZnNzbC5jb20wHhcN
MTgwNDEzMTUyMzEwWhcNMjEwMTA3MTUyMzEwWjCBlzELMAkGA1UEBhMCVVMxEzAR
BgNVBAgMCldhc2hpbmd0b24xEDAOBgNVBAcMB1NlYXR0bGUxFTATBgNVBAoMDHdv
bGZTU0wgSW5jLjEUMBIGA1UECwwLRW5naW5lZXJpbmcxEzARBgNVBAMMClNlcnZl
ciAxLTAxHzAdBgkqhkiG9w0BCQEWEGluZm9Ad29sZnNzbC5jb20wggEiMA0GCSqG
SIb3DQEBAQUAA4IBDwAwggEKAoIBAQDAlQjhV0HycW230kVBJwFlxkWu8rwkMLiV
zi9O1vYciLx8n/uoZ3/+XJxRdfeKygfnNS+P4b17wC98q2SoF/zKXXu64CHlci5v
LobYlXParBtTuV8/1xkNJU/hY2NRiwtkP61DuKUcXDSzrgCgY8X2fwtZaHhzpowY
qQJtr8MZAS64EOPGzEC0aaNGM2mHbsS7F6bz6N2tc7x7LyG1/WZRDL1Us+FtXxy8
I3PRCQOJFNIQuWTDKtChlkq84dQaW8egwMFjeA9ENzAyloAyI5Whd7oT0pdz4l0l
yWoNwzlgpLSwaUJCCenYCLwzILNYIqeq68Th5mGDxdKW39nQT63XAgMBAAGjgfUw
gfIwHQYDVR0OBBYEFLMRMsmSmITiyfjQO24DQsofDo48MIHFBgNVHSMEgb0wgbqA
FLMRMsmSmITiyfjQO24DQsofDo48oYGepIGbMIGYMQswCQYDVQQGEwJVUzETMBEG
A1UECAwKV2FzaGluZ3RvbjEQMA4GA1UEBwwHU2VhdHRsZTEVMBMGA1UECgwMd29s
ZlNTTCBJbmMuMRQwEgYDVQQLDAtFbmdpbmVlcmluZzEUMBIGA1UEAwwLU2VydmVy
IDEgQ0ExHzAdBgkqhkiG9w0BCQEWEGluZm9Ad29sZnNzbC5jb22CAWcwCQYDVR0T
BAIwADANBgkqhkiG9w0BAQUFAAOCAQEAiObHp/wzMfbjHf6SxWlZB8twehiKzEwQ
emv0GjJ4H1WQco3ieJOGtp0vOxLM9oGHWQtUYbTq2npMJ4JJiXhB9FdYshf88TXH
IKlRhCHpSmhcGx0sGrNHkydZpORz6LgwW7dfHxAHWQy91KbhfNaRI065/YUiTAbz
CFgYSIXbRkCx158Ttao0pbk4/7cIGl7jdoAWbLmOV1HcXqED5unurKLQJj3/l5YL
ZgaaySZKwaMC9UfVh9nqqK8hcHf4mxXswO791Ba3ik3AjyUta93db0x/tWxZt6R8
6VKpvHmKYnyroewL+ltu+NsRcqHpxkqDgmTqThNE1AQXw+6N6kubaQ==
-----END CERTIFICATE-----
Certificate:
    Data:
        Version: 3 (0x2)
        Serial Number: 103 (0x67)
    Signature Algorithm: sha1WithRSAEncryption
        Issuer: C=US, ST=Washington, L=Seattle, O=wolfSSL Inc., OU=Engineering, CN=Server 1 CA/emailAddress=info@wolfssl.com
        Validity
            Not Before: Apr 13 15:23:10 2018 GMT
            Not After : Jan  7 15:23:10 2021 GMT
        Subject: C=US, ST=Washington, L=Seattle, O=wolfSSL Inc., OU=Engineering, CN=Server 1-0 CA/emailAddress=info@wolfssl.com
        Subject Public Key Info:
            Public Key Algorithm: rsaEncryption
                Public-Key: (2048 bit)
                Modulus:
                    00:c0:95:08:e1:57:41:f2:71:6d:b7:d2:45:41:27:
                    01:65:c6:45:ae:f2:bc:24:30:b8:95:ce:2f:4e:d6:
                    f6:1c:88:bc:7c:9f:fb:a8:67:7f:fe:5c:9c:51:75:
                    f7:8a:ca:07:e7:35:2f:8f:e1:bd:7b:c0:2f:7c:ab:
                    64:a8:17:fc:ca:5d:7b:ba:e0:21:e5:72:2e:6f:2e:
                    86:d8:95:73:da:ac:1b:53:b9:5f:3f:d7:19:0d:25:
                    4f:e1:63:63:51:8b:0b:64:3f:ad:43:b8:a5:1c:5c:
                    34:b3:ae:00:a0:63:c5:f6:7f:0b:59:68:78:73:a6:
                    8c:18:a9:02:6d:af:c3:19:01:2e:b8:10:e3:c6:cc:
                    40:b4:69:a3:46:33:69:87:6e:c4:bb:17:a6:f3:e8:
                    dd:ad:73:bc:7b:2f:21:b5:fd:66:51:0c:bd:54:b3:
                    e1:6d:5f:1c:bc:23:73:d1:09:03:89:14:d2:10:b9:
                    64:c3:2a:d0:a1:96:4a:bc:e1:d4:1a:5b:c7:a0:c0:
                    c1:63:78:0f:44:37:30:32:96:80:32:23:95:a1:77:
                    ba:13:d2:97:73:e2:5d:25:c9:6a:0d:c3:39:60:a4:
                    b4:b0:69:42:42:09:e9:d8:08:bc:33:20:b3:58:22:
                    a7:aa:eb:c4:e1:e6:61:83:c5:d2:96:df:d9:d0:4f:
                    ad:d7
                Exponent: 65537 (0x10001)
        X509v3 extensions:
            X509v3 Subject Key Identifier: 
                B3:11:32:C9:92:98:84:E2:C9:F8:D0:3B:6E:03:42:CA:1F:0E:8E:3C
            X509v3 Authority Key Identifier: 
                keyid:B3:11:32:C9:92:98:84:E2:C9:F8:D0:3B:6E:03:42:CA:1F:0E:8E:3C
                DirName:/C=US/ST=Montana/L=Bozeman/O=Sawtooth/OU=Consulting/CN=www.wolfssl.com/emailAddress=info@wolfssl.com
                serial:66

            X509v3 Basic Constraints: 
                CA:TRUE, pathlen:0
            X509v3 Key Usage: 
                Certificate Sign, CRL Sign
    Signature Algorithm: sha1WithRSAEncryption
         2b:e5:fc:8a:56:f9:f4:37:84:c8:9a:b4:9d:46:33:24:9d:03:
         59:a2:c7:dd:31:75:31:ac:bf:f2:78:15:7d:31:82:dd:f4:d1:
         e8:f8:01:ac:02:cb:b6:32:5f:18:a5:20:37:1e:5d:3f:29:f6:
         8a:4b:16:c3:64:5e:98:6d:09:3b:6f:24:fe:58:c0:12:1f:86:
         18:0e:4d:e8:d9:bd:4d:44:e6:58:0d:69:fb:52:4d:b5:da:38:
         6d:c0:59:70:f5:5a:6b:51:98:f8:94:bd:d6:14:72:1f:38:fd:
         63:53:c6:f6:eb:f5:f2:c0:ce:b3:fc:35:6e:7a:78:32:28:dd:
         90:65:a1:03:02:69:2c:c9:04:22:70:c4:a8:44:8e:88:99:1c:
         3d:fb:21:a3:b0:d5:f1:29:d0:b8:44:6b:e5:34:bb:74:49:f2:
         29:10:e2:74:98:d5:11:68:a0:c1:b1:15:ae:cc:5f:d9:bb:83:
         78:7f:d2:3f:aa:c0:fc:a3:36:24:bf:b2:ab:94:7f:86:79:94:
         23:dc:8d:4d:83:fa:9d:00:ed:14:15:c7:2c:1d:e2:05:6f:2e:
         ba:f9:af:9c:6a:ef:05:0c:64:2d:f8:0a:61:7b:2d:67:3e:f1:
         fb:2b:e3:09:47:98:2e:a5:68:64:7a:f8:67:5a:56:b8:68:42:
         90:8d:3b:cb
-----BEGIN CERTIFICATE-----
MIIEtjCCA56gAwIBAgIBZzANBgkqhkiG9w0BAQUFADCBmDELMAkGA1UEBhMCVVMx
EzARBgNVBAgMCldhc2hpbmd0b24xEDAOBgNVBAcMB1NlYXR0bGUxFTATBgNVBAoM
DHdvbGZTU0wgSW5jLjEUMBIGA1UECwwLRW5naW5lZXJpbmcxFDASBgNVBAMMC1Nl
cnZlciAxIENBMR8wHQYJKoZIhvcNAQkBFhBpbmZvQHdvbGZzc2wuY29tMB4XDTE4
MDQxMzE1MjMxMFoXDTIxMDEwNzE1MjMxMFowgZoxCzAJBgNVBAYTAlVTMRMwEQYD
VQQIDApXYXNoaW5ndG9uMRAwDgYDVQQHDAdTZWF0dGxlMRUwEwYDVQQKDAx3b2xm
U1NMIEluYy4xFDASBgNVBAsMC0VuZ2luZWVyaW5nMRYwFAYDVQQDDA1TZXJ2ZXIg
MS0wIENBMR8wHQYJKoZIhvcNAQkBFhBpbmZvQHdvbGZzc2wuY29tMIIBIjANBgkq
hkiG9w0BAQEFAAOCAQ8AMIIBCgKCAQEAwJUI4VdB8nFtt9JFQScBZcZFrvK8JDC4
lc4vTtb2HIi8fJ/7qGd//lycUXX3isoH5zUvj+G9e8AvfKtkqBf8yl17uuAh5XIu
by6G2JVz2qwbU7lfP9cZDSVP4WNjUYsLZD+tQ7ilHFw0s64AoGPF9n8LWWh4c6aM
GKkCba/DGQEuuBDjxsxAtGmjRjNph27Euxem8+jdrXO8ey8htf1mUQy9VLPhbV8c
vCNz0QkDiRTSELlkwyrQoZZKvOHUGlvHoMDBY3gPRDcwMpaAMiOVoXe6E9KXc+Jd
JclqDcM5YKS0sGlCQgnp2Ai8MyCzWCKnquvE4eZhg8XSlt/Z0E+t1wIDAQABo4IB
BTCCAQEwHQYDVR0OBBYEFLMRMsmSmITiyfjQO24DQsofDo48MIHBBgNVHSMEgbkw
gbaAFLMRMsmSmITiyfjQO24DQsofDo48oYGapIGXMIGUMQswCQYDVQQGEwJVUzEQ
MA4GA1UECAwHTW9udGFuYTEQMA4GA1UEBwwHQm96ZW1hbjERMA8GA1UECgwIU2F3
dG9vdGgxEzARBgNVBAsMCkNvbnN1bHRpbmcxGDAWBgNVBAMMD3d3dy53b2xmc3Ns
LmNvbTEfMB0GCSqGSIb3DQEJARYQaW5mb0B3b2xmc3NsLmNvbYIBZjAPBgNVHRME
CDAGAQH/AgEAMAsGA1UdDwQEAwIBBjANBgkqhkiG9w0BAQUFAAOCAQEAK+X8ilb5
9DeEyJq0nUYzJJ0DWaLH3TF1May/8ngVfTGC3fTR6PgBrALLtjJfGKUgNx5dPyn2
iksWw2RemG0JO28k/ljAEh+GGA5N6Nm9TUTmWA1p+1JNtdo4bcBZcPVaa1GY+JS9
1hRyHzj9Y1PG9uv18sDOs/w1bnp4MijdkGWhAwJpLMkEInDEqESOiJkcPfsho7DV
8SnQuERr5TS7dEnyKRDidJjVEWigwbEVrsxf2buDeH/SP6rA/KM2JL+yq5R/hnmU
I9yNTYP6nQDtFBXHLB3iBW8uuvmvnGrvBQxkLfgKYXstZz7x+yvjCUeYLqVoZHr4
Z1pWuGhCkI07yw==
-----END CERTIFICATE-----
Certificate:
    Data:
        Version: 3 (0x2)
        Serial Number: 102 (0x66)
    Signature Algorithm: sha1WithRSAEncryption
        Issuer: C=US, ST=Montana, L=Bozeman, O=Sawtooth, OU=Consulting, CN=www.wolfssl.com/emailAddress=info@wolfssl.com
        Validity
            Not Before: Apr 13 15:23:10 2018 GMT
            Not After : Jan  7 15:23:10 2021 GMT
        Subject: C=US, ST=Washington, L=Seattle, O=wolfSSL Inc., OU=Engineering, CN=Server 1 CA/emailAddress=info@wolfssl.com
        Subject Public Key Info:
            Public Key Algorithm: rsaEncryption
                Public-Key: (2048 bit)
                Modulus:
                    00:c0:95:08:e1:57:41:f2:71:6d:b7:d2:45:41:27:
                    01:65:c6:45:ae:f2:bc:24:30:b8:95:ce:2f:4e:d6:
                    f6:1c:88:bc:7c:9f:fb:a8:67:7f:fe:5c:9c:51:75:
                    f7:8a:ca:07:e7:35:2f:8f:e1:bd:7b:c0:2f:7c:ab:
                    64:a8:17:fc:ca:5d:7b:ba:e0:21:e5:72:2e:6f:2e:
                    86:d8:95:73:da:ac:1b:53:b9:5f:3f:d7:19:0d:25:
                    4f:e1:63:63:51:8b:0b:64:3f:ad:43:b8:a5:1c:5c:
                    34:b3:ae:00:a0:63:c5:f6:7f:0b:59:68:78:73:a6:
                    8c:18:a9:02:6d:af:c3:19:01:2e:b8:10:e3:c6:cc:
                    40:b4:69:a3:46:33:69:87:6e:c4:bb:17:a6:f3:e8:
                    dd:ad:73:bc:7b:2f:21:b5:fd:66:51:0c:bd:54:b3:
                    e1:6d:5f:1c:bc:23:73:d1:09:03:89:14:d2:10:b9:
                    64:c3:2a:d0:a1:96:4a:bc:e1:d4:1a:5b:c7:a0:c0:
                    c1:63:78:0f:44:37:30:32:96:80:32:23:95:a1:77:
                    ba:13:d2:97:73:e2:5d:25:c9:6a:0d:c3:39:60:a4:
                    b4:b0:69:42:42:09:e9:d8:08:bc:33:20:b3:58:22:
                    a7:aa:eb:c4:e1:e6:61:83:c5:d2:96:df:d9:d0:4f:
                    ad:d7
                Exponent: 65537 (0x10001)
        X509v3 extensions:
            X509v3 Subject Key Identifier: 
                B3:11:32:C9:92:98:84:E2:C9:F8:D0:3B:6E:03:42:CA:1F:0E:8E:3C
            X509v3 Authority Key Identifier: 
                keyid:27:8E:67:11:74:C3:26:1D:3F:ED:33:63:B3:A4:D8:1D:30:E5:E8:D5
                DirName:/C=US/ST=Montana/L=Bozeman/O=Sawtooth/OU=Consulting/CN=www.wolfssl.com/emailAddress=info@wolfssl.com
                serial:86:FF:F5:8E:10:DE:B8:FB

            X509v3 Basic Constraints: 
                CA:TRUE, pathlen:1
            X509v3 Key Usage: 
                Certificate Sign, CRL Sign
    Signature Algorithm: sha1WithRSAEncryption
         38:60:36:73:96:77:51:dc:fe:99:5a:1d:b4:b8:0e:c2:1b:96:
         13:b0:e9:6c:42:24:db:d2:20:6c:0c:1b:2e:d4:de:cb:7b:fd:
         0f:91:7d:18:23:50:87:29:51:fc:97:1c:8a:2f:3a:5c:89:59:
         18:54:24:d3:5b:6c:f9:5d:99:11:2c:2d:4d:1f:6b:e6:59:4e:
         e8:ba:37:b5:f8:b0:44:3d:e5:47:4d:ac:b0:a0:55:6b:89:a3:
         e4:65:87:91:5f:71:51:55:e6:ea:30:d0:13:a1:11:b2:04:b1:
         c7:62:cc:55:2e:ac:d4:87:a1:87:48:7a:45:bc:2b:c5:c5:90:
         1a:a2:98:93:63:6c:97:18:a3:18:58:7a:ba:b3:84:8f:ed:b3:
         9a:bf:5a:31:2f:4e:24:43:74:7a:23:dd:c3:7b:76:8b:6c:aa:
         ad:76:d9:39:4b:7f:e5:c2:24:65:75:b5:1c:29:ca:c4:a3:9d:
         6d:d6:9f:cd:05:3b:c5:54:db:76:01:51:dc:2e:60:08:74:81:
         83:1b:d1:e8:77:3e:ac:67:49:f6:1b:4c:5e:56:6a:93:40:15:
         86:dc:c0:c1:70:7d:62:66:ed:ff:32:2d:b6:f8:0f:a4:4f:75:
         92:22:37:04:3a:32:16:e8:bc:b6:15:a4:0f:17:6e:72:6e:43:
         1a:13:d9:87
-----BEGIN CERTIFICATE-----
MIIEuDCCA6CgAwIBAgIBZjANBgkqhkiG9w0BAQUFADCBlDELMAkGA1UEBhMCVVMx
EDAOBgNVBAgMB01vbnRhbmExEDAOBgNVBAcMB0JvemVtYW4xETAPBgNVBAoMCFNh
d3Rvb3RoMRMwEQYDVQQLDApDb25zdWx0aW5nMRgwFgYDVQQDDA93d3cud29sZnNz
bC5jb20xHzAdBgkqhkiG9w0BCQEWEGluZm9Ad29sZnNzbC5jb20wHhcNMTgwNDEz
MTUyMzEwWhcNMjEwMTA3MTUyMzEwWjCBmDELMAkGA1UEBhMCVVMxEzARBgNVBAgM
Cldhc2hpbmd0b24xEDAOBgNVBAcMB1NlYXR0bGUxFTATBgNVBAoMDHdvbGZTU0wg
SW5jLjEUMBIGA1UECwwLRW5naW5lZXJpbmcxFDASBgNVBAMMC1NlcnZlciAxIENB
MR8wHQYJKoZIhvcNAQkBFhBpbmZvQHdvbGZzc2wuY29tMIIBIjANBgkqhkiG9w0B
AQEFAAOCAQ8AMIIBCgKCAQEAwJUI4VdB8nFtt9JFQScBZcZFrvK8JDC4lc4vTtb2
HIi8fJ/7qGd//lycUXX3isoH5zUvj+G9e8AvfKtkqBf8yl17uuAh5XIuby6G2JVz
2qwbU7lfP9cZDSVP4WNjUYsLZD+tQ7ilHFw0s64AoGPF9n8LWWh4c6aMGKkCba/D
GQEuuBDjxsxAtGmjRjNph27Euxem8+jdrXO8ey8htf1mUQy9VLPhbV8cvCNz0QkD
iRTSELlkwyrQoZZKvOHUGlvHoMDBY3gPRDcwMpaAMiOVoXe6E9KXc+JdJclqDcM5
YKS0sGlCQgnp2Ai8MyCzWCKnquvE4eZhg8XSlt/Z0E+t1wIDAQABo4IBDTCCAQkw
HQYDVR0OBBYEFLMRMsmSmITiyfjQO24DQsofDo48MIHJBgNVHSMEgcEwgb6AFCeO
ZxF0wyYdP+0zY7Ok2B0w5ejVoYGapIGXMIGUMQswCQYDVQQGEwJVUzEQMA4GA1UE
CAwHTW9udGFuYTEQMA4GA1UEBwwHQm96ZW1hbjERMA8GA1UECgwIU2F3dG9vdGgx
EzARBgNVBAsMCkNvbnN1bHRpbmcxGDAWBgNVBAMMD3d3dy53b2xmc3NsLmNvbTEf
MB0GCSqGSIb3DQEJARYQaW5mb0B3b2xmc3NsLmNvbYIJAIb/9Y4Q3rj7MA8GA1Ud
EwQIMAYBAf8CAQEwCwYDVR0PBAQDAgEGMA0GCSqGSIb3DQEBBQUAA4IBAQA4YDZz
lndR3P6ZWh20uA7CG5YTsOlsQiTb0iBsDBsu1N7Le/0PkX0YI1CHKVH8lxyKLzpc
iVkYVCTTW2z5XZkRLC1NH2vmWU7ouje1+LBEPeVHTaywoFVriaPkZYeRX3FRVebq
MNAToRGyBLHHYsxVLqzUh6GHSHpFvCvFxZAaopiTY2yXGKMYWHq6s4SP7bOav1ox
L04kQ3R6I93De3aLbKqtdtk5S3/lwiRldbUcKcrEo51t1p/NBTvFVNt2AVHcLmAI
dIGDG9Hodz6sZ0n2G0xeVmqTQBWG3MDBcH1iZu3/Mi22+A+kT3WSIjcEOjIW6Ly2
FaQPF25ybkMaE9mH
-----END CERTIFICATE-----
