Certificate:
    Data:
        Version: 3 (0x2)
        Serial Number: 110 (0x6e)
    Signature Algorithm: sha1WithRSAEncryption
        Issuer: C=US, ST=Washington, L=Seattle, O=wolfSSL Inc., OU=Engineering, CN=Server 0 CA/emailAddress=info@wolfssl.com
        Validity
            Not Before: Apr 13 15:23:10 2018 GMT
            Not After : Jan  7 15:23:10 2021 GMT
        Subject: C=US, ST=Washington, L=Seattle, O=wolfSSL Inc., OU=Engineering, CN=Server 0-1 CA/emailAddress=info@wolfssl.com
        Subject Public Key Info:
            Public Key Algorithm: rsaEncryption
                Public-Key: (2048 bit)
                Modulus:
                    00:c0:95:08:e1:57:41:f2:71:6d:b7:d2:45:41:27:
                    01:65:c6:45:ae:f2:bc:24:30:b8:95:ce:2f:4e:d6:
                    f6:1c:88:bc:7c:9f:fb:a8:67:7f:fe:5c:9c:51:75:
                    f7:8a:ca:07:e7:35:2f:8f:e1:bd:7b:c0:2f:7c:ab:
                    64:a8:17:fc:ca:5d:7b:ba:e0:21:e5:72:2e:6f:2e:
                    86:d8:95:73:da:ac:1b:53:b9:5f:3f:d7:19:0d:25:
                    4f:e1:63:63:51:8b:0b:64:3f:ad:43:b8:a5:1c:5c:
                    34:b3:ae:00:a0:63:c5:f6:7f:0b:59:68:78:73:a6:
                    8c:18:a9:02:6d:af:c3:19:01:2e:b8:10:e3:c6:cc:
                    40:b4:69:a3:46:33:69:87:6e:c4:bb:17:a6:f3:e8:
                    dd:ad:73:bc:7b:2f:21:b5:fd:66:51:0c:bd:54:b3:
                    e1:6d:5f:1c:bc:23:73:d1:09:03:89:14:d2:10:b9:
                    64:c3:2a:d0:a1:96:4a:bc:e1:d4:1a:5b:c7:a0:c0:
                    c1:63:78:0f:44:37:30:32:96:80:32:23:95:a1:77:
                    ba:13:d2:97:73:e2:5d:25:c9:6a:0d:c3:39:60:a4:
                    b4:b0:69:42:42:09:e9:d8:08:bc:33:20:b3:58:22:
                    a7:aa:eb:c4:e1:e6:61:83:c5:d2:96:df:d9:d0:4f:
                    ad:d7
                Exponent: 65537 (0x10001)
        X509v3 extensions:
            X509v3 Subject Key Identifier: 
                B3:11:32:C9:92:98:84:E2:C9:F8:D0:3B:6E:03:42:CA:1F:0E:8E:3C
            X509v3 Authority Key Identifier: 
                keyid:B3:11:32:C9:92:98:84:E2:C9:F8:D0:3B:6E:03:42:CA:1F:0E:8E:3C
                DirName:/C=US/ST=Montana/L=Bozeman/O=Sawtooth/OU=Consulting/CN=www.wolfssl.com/emailAddress=info@wolfssl.com
                serial:64

            X509v3 Basic Constraints: 
                CA:TRUE, pathlen:1
            X509v3 Key Usage: 
                Certificate Sign, CRL Sign
    Signature Algorithm: sha1WithRSAEncryption
         15:ef:23:ef:d6:6d:8a:77:cd:20:47:64:1f:c3:65:0c:93:79:
         a9:9e:a0:c7:bc:10:57:e6:ab:58:20:af:b1:fd:25:09:c9:72:
         a9:18:16:24:e7:8e:9a:e2:6d:17:2d:66:8a:5f:75:83:ee:ac:
         58:be:81:51:11:0d:4b:ee:f1:08:de:dc:ac:24:44:ab:08:a6:
         ad:ee:72:91:45:0e:f9:c9:ea:14:81:21:d2:09:02:20:f3:ea:
         ab:75:f1:33:a9:32:2e:a2:f9:06:e9:bf:a4:0e:88:a0:4a:9c:
         25:6f:40:34:9c:62:49:26:6f:bb:68:a9:c5:e5:a3:49:35:0b:
         76:f3:44:1c:53:1d:e2:d6:5b:b7:a4:a3:9a:a9:b2:f9:06:43:
         23:17:e7:3e:f5:01:ac:e8:11:39:d6:5f:23:3c:43:c5:01:6a:
         45:b7:15:4e:82:89:45:f9:8b:ab:ba:4e:f2:ff:f3:5d:5d:fe:
         e1:e9:ee:e4:bf:b3:a6:58:2e:79:11:47:ce:5d:5c:52:82:d1:
         45:bd:1f:50:41:57:a7:39:34:ec:e5:50:de:e5:9c:5f:ef:e3:
         9c:39:de:e4:7e:d1:03:ad:96:06:f9:69:bc:80:25:da:75:88:
         61:99:8d:6e:f1:51:ce:a0:ba:56:d4:de:78:65:ed:2a:b2:82:
         ce:7a:c4:ef
-----BEGIN CERTIFICATE-----
MIIEtjCCA56gAwIBAgIBbjANBgkqhkiG9w0BAQUFADCBmDELMAkGA1UEBhMCVVMx
EzARBgNVBAgMCldhc2hpbmd0b24xEDAOBgNVBAcMB1NlYXR0bGUxFTATBgNVBAoM
DHdvbGZTU0wgSW5jLjEUMBIGA1UECwwLRW5naW5lZXJpbmcxFDASBgNVBAMMC1Nl
cnZlciAwIENBMR8wHQYJKoZIhvcNAQkBFhBpbmZvQHdvbGZzc2wuY29tMB4XDTE4
MDQxMzE1MjMxMFoXDTIxMDEwNzE1MjMxMFowgZoxCzAJBgNVBAYTAlVTMRMwEQYD
VQQIDApXYXNoaW5ndG9uMRAwDgYDVQQHDAdTZWF0dGxlMRUwEwYDVQQKDAx3b2xm
U1NMIEluYy4xFDASBgNVBAsMC0VuZ2luZWVyaW5nMRYwFAYDVQQDDA1TZXJ2ZXIg
MC0xIENBMR8wHQYJKoZIhvcNAQkBFhBpbmZvQHdvbGZzc2wuY29tMIIBIjANBgkq
hkiG9w0BAQEFAAOCAQ8AMIIBCgKCAQEAwJUI4VdB8nFtt9JFQScBZcZFrvK8JDC4
lc4vTtb2HIi8fJ/7qGd//lycUXX3isoH5zUvj+G9e8AvfKtkqBf8yl17uuAh5XIu
by6G2JVz2qwbU7lfP9cZDSVP4WNjUYsLZD+tQ7ilHFw0s64AoGPF9n8LWWh4c6aM
GKkCba/DGQEuuBDjxsxAtGmjRjNph27Euxem8+jdrXO8ey8htf1mUQy9VLPhbV8c
vCNz0QkDiRTSELlkwyrQoZZKvOHUGlvHoMDBY3gPRDcwMpaAMiOVoXe6E9KXc+Jd
JclqDcM5YKS0sGlCQgnp2Ai8MyCzWCKnquvE4eZhg8XSlt/Z0E+t1wIDAQABo4IB
BTCCAQEwHQYDVR0OBBYEFLMRMsmSmITiyfjQO24DQsofDo48MIHBBgNVHSMEgbkw
gbaAFLMRMsmSmITiyfjQO24DQsofDo48oYGapIGXMIGUMQswCQYDVQQGEwJVUzEQ
MA4GA1UECAwHTW9udGFuYTEQMA4GA1UEBwwHQm96ZW1hbjERMA8GA1UECgwIU2F3
dG9vdGgxEzARBgNVBAsMCkNvbnN1bHRpbmcxGDAWBgNVBAMMD3d3dy53b2xmc3Ns
LmNvbTEfMB0GCSqGSIb3DQEJARYQaW5mb0B3b2xmc3NsLmNvbYIBZDAPBgNVHRME
CDAGAQH/AgEBMAsGA1UdDwQEAwIBBjANBgkqhkiG9w0BAQUFAAOCAQEAFe8j79Zt
infNIEdkH8NlDJN5qZ6gx7wQV+arWCCvsf0lCclyqRgWJOeOmuJtFy1mil91g+6s
WL6BURENS+7xCN7crCREqwimre5ykUUO+cnqFIEh0gkCIPPqq3XxM6kyLqL5Bum/
pA6IoEqcJW9ANJxiSSZvu2ipxeWjSTULdvNEHFMd4tZbt6Sjmqmy+QZDIxfnPvUB
rOgROdZfIzxDxQFqRbcVToKJRfmLq7pO8v/zXV3+4enu5L+zplgueRFHzl1cUoLR
Rb0fUEFXpzk07OVQ3uWcX+/jnDne5H7RA62WBvlpvIAl2nWIYZmNbvFRzqC6VtTe
eGXtKrKCznrE7w==
-----END CERTIFICATE-----
