Certificate:
    Data:
        Version: 3 (0x2)
        Serial Number: 102 (0x66)
    Signature Algorithm: sha1WithRSAEncryption
        Issuer: C=US, ST=Montana, L=Bozeman, O=Sawtooth, OU=Consulting, CN=www.wolfssl.com/emailAddress=info@wolfssl.com
        Validity
            Not Before: Apr 13 15:23:10 2018 GMT
            Not After : Jan  7 15:23:10 2021 GMT
        Subject: C=US, ST=Washington, L=Seattle, O=wolfSSL Inc., OU=Engineering, CN=Server 1 CA/emailAddress=info@wolfssl.com
        Subject Public Key Info:
            Public Key Algorithm: rsaEncryption
                Public-Key: (2048 bit)
                Modulus:
                    00:c0:95:08:e1:57:41:f2:71:6d:b7:d2:45:41:27:
                    01:65:c6:45:ae:f2:bc:24:30:b8:95:ce:2f:4e:d6:
                    f6:1c:88:bc:7c:9f:fb:a8:67:7f:fe:5c:9c:51:75:
                    f7:8a:ca:07:e7:35:2f:8f:e1:bd:7b:c0:2f:7c:ab:
                    64:a8:17:fc:ca:5d:7b:ba:e0:21:e5:72:2e:6f:2e:
                    86:d8:95:73:da:ac:1b:53:b9:5f:3f:d7:19:0d:25:
                    4f:e1:63:63:51:8b:0b:64:3f:ad:43:b8:a5:1c:5c:
                    34:b3:ae:00:a0:63:c5:f6:7f:0b:59:68:78:73:a6:
                    8c:18:a9:02:6d:af:c3:19:01:2e:b8:10:e3:c6:cc:
                    40:b4:69:a3:46:33:69:87:6e:c4:bb:17:a6:f3:e8:
                    dd:ad:73:bc:7b:2f:21:b5:fd:66:51:0c:bd:54:b3:
                    e1:6d:5f:1c:bc:23:73:d1:09:03:89:14:d2:10:b9:
                    64:c3:2a:d0:a1:96:4a:bc:e1:d4:1a:5b:c7:a0:c0:
                    c1:63:78:0f:44:37:30:32:96:80:32:23:95:a1:77:
                    ba:13:d2:97:73:e2:5d:25:c9:6a:0d:c3:39:60:a4:
                    b4:b0:69:42:42:09:e9:d8:08:bc:33:20:b3:58:22:
                    a7:aa:eb:c4:e1:e6:61:83:c5:d2:96:df:d9:d0:4f:
                    ad:d7
                Exponent: 65537 (0x10001)
        X509v3 extensions:
            X509v3 Subject Key Identifier: 
                B3:11:32:C9:92:98:84:E2:C9:F8:D0:3B:6E:03:42:CA:1F:0E:8E:3C
            X509v3 Authority Key Identifier: 
                keyid:27:8E:67:11:74:C3:26:1D:3F:ED:33:63:B3:A4:D8:1D:30:E5:E8:D5
                DirName:/C=US/ST=Montana/L=Bozeman/O=Sawtooth/OU=Consulting/CN=www.wolfssl.com/emailAddress=info@wolfssl.com
                serial:86:FF:F5:8E:10:DE:B8:FB

            X509v3 Basic Constraints: 
                CA:TRUE, pathlen:1
            X509v3 Key Usage: 
                Certificate Sign, CRL Sign
    Signature Algorithm: sha1WithRSAEncryption
         38:60:36:73:96:77:51:dc:fe:99:5a:1d:b4:b8:0e:c2:1b:96:
         13:b0:e9:6c:42:24:db:d2:20:6c:0c:1b:2e:d4:de:cb:7b:fd:
         0f:91:7d:18:23:50:87:29:51:fc:97:1c:8a:2f:3a:5c:89:59:
         18:54:24:d3:5b:6c:f9:5d:99:11:2c:2d:4d:1f:6b:e6:59:4e:
         e8:ba:37:b5:f8:b0:44:3d:e5:47:4d:ac:b0:a0:55:6b:89:a3:
         e4:65:87:91:5f:71:51:55:e6:ea:30:d0:13:a1:11:b2:04:b1:
         c7:62:cc:55:2e:ac:d4:87:a1:87:48:7a:45:bc:2b:c5:c5:90:
         1a:a2:98:93:63:6c:97:18:a3:18:58:7a:ba:b3:84:8f:ed:b3:
         9a:bf:5a:31:2f:4e:24:43:74:7a:23:dd:c3:7b:76:8b:6c:aa:
         ad:76:d9:39:4b:7f:e5:c2:24:65:75:b5:1c:29:ca:c4:a3:9d:
         6d:d6:9f:cd:05:3b:c5:54:db:76:01:51:dc:2e:60:08:74:81:
         83:1b:d1:e8:77:3e:ac:67:49:f6:1b:4c:5e:56:6a:93:40:15:
         86:dc:c0:c1:70:7d:62:66:ed:ff:32:2d:b6:f8:0f:a4:4f:75:
         92:22:37:04:3a:32:16:e8:bc:b6:15:a4:0f:17:6e:72:6e:43:
         1a:13:d9:87
-----BEGIN CERTIFICATE-----
MIIEuDCCA6CgAwIBAgIBZjANBgkqhkiG9w0BAQUFADCBlDELMAkGA1UEBhMCVVMx
EDAOBgNVBAgMB01vbnRhbmExEDAOBgNVBAcMB0JvemVtYW4xETAPBgNVBAoMCFNh
d3Rvb3RoMRMwEQYDVQQLDApDb25zdWx0aW5nMRgwFgYDVQQDDA93d3cud29sZnNz
bC5jb20xHzAdBgkqhkiG9w0BCQEWEGluZm9Ad29sZnNzbC5jb20wHhcNMTgwNDEz
MTUyMzEwWhcNMjEwMTA3MTUyMzEwWjCBmDELMAkGA1UEBhMCVVMxEzARBgNVBAgM
Cldhc2hpbmd0b24xEDAOBgNVBAcMB1NlYXR0bGUxFTATBgNVBAoMDHdvbGZTU0wg
SW5jLjEUMBIGA1UECwwLRW5naW5lZXJpbmcxFDASBgNVBAMMC1NlcnZlciAxIENB
MR8wHQYJKoZIhvcNAQkBFhBpbmZvQHdvbGZzc2wuY29tMIIBIjANBgkqhkiG9w0B
AQEFAAOCAQ8AMIIBCgKCAQEAwJUI4VdB8nFtt9JFQScBZcZFrvK8JDC4lc4vTtb2
HIi8fJ/7qGd//lycUXX3isoH5zUvj+G9e8AvfKtkqBf8yl17uuAh5XIuby6G2JVz
2qwbU7lfP9cZDSVP4WNjUYsLZD+tQ7ilHFw0s64AoGPF9n8LWWh4c6aMGKkCba/D
GQEuuBDjxsxAtGmjRjNph27Euxem8+jdrXO8ey8htf1mUQy9VLPhbV8cvCNz0QkD
iRTSELlkwyrQoZZKvOHUGlvHoMDBY3gPRDcwMpaAMiOVoXe6E9KXc+JdJclqDcM5
YKS0sGlCQgnp2Ai8MyCzWCKnquvE4eZhg8XSlt/Z0E+t1wIDAQABo4IBDTCCAQkw
HQYDVR0OBBYEFLMRMsmSmITiyfjQO24DQsofDo48MIHJBgNVHSMEgcEwgb6AFCeO
ZxF0wyYdP+0zY7Ok2B0w5ejVoYGapIGXMIGUMQswCQYDVQQGEwJVUzEQMA4GA1UE
CAwHTW9udGFuYTEQMA4GA1UEBwwHQm96ZW1hbjERMA8GA1UECgwIU2F3dG9vdGgx
EzARBgNVBAsMCkNvbnN1bHRpbmcxGDAWBgNVBAMMD3d3dy53b2xmc3NsLmNvbTEf
MB0GCSqGSIb3DQEJARYQaW5mb0B3b2xmc3NsLmNvbYIJAIb/9Y4Q3rj7MA8GA1Ud
EwQIMAYBAf8CAQEwCwYDVR0PBAQDAgEGMA0GCSqGSIb3DQEBBQUAA4IBAQA4YDZz
lndR3P6ZWh20uA7CG5YTsOlsQiTb0iBsDBsu1N7Le/0PkX0YI1CHKVH8lxyKLzpc
iVkYVCTTW2z5XZkRLC1NH2vmWU7ouje1+LBEPeVHTaywoFVriaPkZYeRX3FRVebq
MNAToRGyBLHHYsxVLqzUh6GHSHpFvCvFxZAaopiTY2yXGKMYWHq6s4SP7bOav1ox
L04kQ3R6I93De3aLbKqtdtk5S3/lwiRldbUcKcrEo51t1p/NBTvFVNt2AVHcLmAI
dIGDG9Hodz6sZ0n2G0xeVmqTQBWG3MDBcH1iZu3/Mi22+A+kT3WSIjcEOjIW6Ly2
FaQPF25ybkMaE9mH
-----END CERTIFICATE-----
