Certificate:
    Data:
        Version: 3 (0x2)
        Serial Number: 111 (0x6f)
    Signature Algorithm: sha1WithRSAEncryption
        Issuer: C=US, ST=Washington, L=Seattle, O=wolfSSL Inc., OU=Engineering, CN=Server 0-1 CA/emailAddress=info@wolfssl.com
        Validity
            Not Before: Apr 13 15:23:10 2018 GMT
            Not After : Jan  7 15:23:10 2021 GMT
        Subject: C=US, ST=Washington, L=Seattle, O=wolfSSL Inc., OU=Engineering, CN=Server 0-1/emailAddress=info@wolfssl.com
        Subject Public Key Info:
            Public Key Algorithm: rsaEncryption
                Public-Key: (2048 bit)
                Modulus:
                    00:c0:95:08:e1:57:41:f2:71:6d:b7:d2:45:41:27:
                    01:65:c6:45:ae:f2:bc:24:30:b8:95:ce:2f:4e:d6:
                    f6:1c:88:bc:7c:9f:fb:a8:67:7f:fe:5c:9c:51:75:
                    f7:8a:ca:07:e7:35:2f:8f:e1:bd:7b:c0:2f:7c:ab:
                    64:a8:17:fc:ca:5d:7b:ba:e0:21:e5:72:2e:6f:2e:
                    86:d8:95:73:da:ac:1b:53:b9:5f:3f:d7:19:0d:25:
                    4f:e1:63:63:51:8b:0b:64:3f:ad:43:b8:a5:1c:5c:
                    34:b3:ae:00:a0:63:c5:f6:7f:0b:59:68:78:73:a6:
                    8c:18:a9:02:6d:af:c3:19:01:2e:b8:10:e3:c6:cc:
                    40:b4:69:a3:46:33:69:87:6e:c4:bb:17:a6:f3:e8:
                    dd:ad:73:bc:7b:2f:21:b5:fd:66:51:0c:bd:54:b3:
                    e1:6d:5f:1c:bc:23:73:d1:09:03:89:14:d2:10:b9:
                    64:c3:2a:d0:a1:96:4a:bc:e1:d4:1a:5b:c7:a0:c0:
                    c1:63:78:0f:44:37:30:32:96:80:32:23:95:a1:77:
                    ba:13:d2:97:73:e2:5d:25:c9:6a:0d:c3:39:60:a4:
                    b4:b0:69:42:42:09:e9:d8:08:bc:33:20:b3:58:22:
                    a7:aa:eb:c4:e1:e6:61:83:c5:d2:96:df:d9:d0:4f:
                    ad:d7
                Exponent: 65537 (0x10001)
        X509v3 extensions:
            X509v3 Subject Key Identifier: 
                B3:11:32:C9:92:98:84:E2:C9:F8:D0:3B:6E:03:42:CA:1F:0E:8E:3C
            X509v3 Authority Key Identifier: 
                keyid:B3:11:32:C9:92:98:84:E2:C9:F8:D0:3B:6E:03:42:CA:1F:0E:8E:3C
                DirName:/C=US/ST=Washington/L=Seattle/O=wolfSSL Inc./OU=Engineering/CN=Server 0 CA/emailAddress=info@wolfssl.com
                serial:6E

            X509v3 Basic Constraints: 
                CA:FALSE
    Signature Algorithm: sha1WithRSAEncryption
         84:51:4f:e0:a5:4a:bc:2f:6d:e2:aa:13:6a:30:c0:f9:61:3d:
         59:9a:7a:42:9d:c6:c5:c1:79:3a:f8:83:8a:6e:0d:47:b9:b0:
         9b:49:e8:77:d9:e4:b0:6a:24:93:c8:32:52:e9:a5:8b:6f:17:
         d4:5a:d3:b8:aa:1e:0a:50:15:a9:69:3c:3c:63:14:1f:ce:ed:
         cd:58:3e:68:2e:1e:6f:f0:a8:ab:6d:68:60:9d:8c:3f:95:be:
         ee:65:b9:e7:25:1a:f3:d2:6b:8f:70:d1:9f:5d:a7:2f:0d:b2:
         a4:0b:a0:d2:4a:3d:4e:9b:e3:e5:db:5c:d3:ba:08:41:07:aa:
         c4:b7:d7:f9:fe:a4:2d:69:94:4a:b7:e9:fa:18:52:90:01:53:
         57:08:a2:25:85:92:f7:f2:35:fd:05:c2:ce:e3:e5:18:b8:34:
         b6:80:6e:a5:e6:06:4f:92:a5:ea:56:7e:00:ff:5b:5d:17:90:
         83:bb:10:ac:11:f4:49:d0:81:f5:f3:ce:f8:f3:46:c1:fc:53:
         38:eb:0b:46:4c:1b:ec:df:ee:74:c0:3a:66:f1:a4:02:f6:51:
         5d:72:bf:6b:68:7b:2c:11:7d:08:4c:70:dd:93:cc:b4:b9:6a:
         aa:29:de:79:b9:93:6d:c4:52:8a:b7:c5:e9:a3:43:11:59:48:
         51:b0:9c:ce
-----BEGIN CERTIFICATE-----
MIIEpDCCA4ygAwIBAgIBbzANBgkqhkiG9w0BAQUFADCBmjELMAkGA1UEBhMCVVMx
EzARBgNVBAgMCldhc2hpbmd0b24xEDAOBgNVBAcMB1NlYXR0bGUxFTATBgNVBAoM
DHdvbGZTU0wgSW5jLjEUMBIGA1UECwwLRW5naW5lZXJpbmcxFjAUBgNVBAMMDVNl
cnZlciAwLTEgQ0ExHzAdBgkqhkiG9w0BCQEWEGluZm9Ad29sZnNzbC5jb20wHhcN
MTgwNDEzMTUyMzEwWhcNMjEwMTA3MTUyMzEwWjCBlzELMAkGA1UEBhMCVVMxEzAR
BgNVBAgMCldhc2hpbmd0b24xEDAOBgNVBAcMB1NlYXR0bGUxFTATBgNVBAoMDHdv
bGZTU0wgSW5jLjEUMBIGA1UECwwLRW5naW5lZXJpbmcxEzARBgNVBAMMClNlcnZl
ciAwLTExHzAdBgkqhkiG9w0BCQEWEGluZm9Ad29sZnNzbC5jb20wggEiMA0GCSqG
SIb3DQEBAQUAA4IBDwAwggEKAoIBAQDAlQjhV0HycW230kVBJwFlxkWu8rwkMLiV
zi9O1vYciLx8n/uoZ3/+XJxRdfeKygfnNS+P4b17wC98q2SoF/zKXXu64CHlci5v
LobYlXParBtTuV8/1xkNJU/hY2NRiwtkP61DuKUcXDSzrgCgY8X2fwtZaHhzpowY
qQJtr8MZAS64EOPGzEC0aaNGM2mHbsS7F6bz6N2tc7x7LyG1/WZRDL1Us+FtXxy8
I3PRCQOJFNIQuWTDKtChlkq84dQaW8egwMFjeA9ENzAyloAyI5Whd7oT0pdz4l0l
yWoNwzlgpLSwaUJCCenYCLwzILNYIqeq68Th5mGDxdKW39nQT63XAgMBAAGjgfUw
gfIwHQYDVR0OBBYEFLMRMsmSmITiyfjQO24DQsofDo48MIHFBgNVHSMEgb0wgbqA
FLMRMsmSmITiyfjQO24DQsofDo48oYGepIGbMIGYMQswCQYDVQQGEwJVUzETMBEG
A1UECAwKV2FzaGluZ3RvbjEQMA4GA1UEBwwHU2VhdHRsZTEVMBMGA1UECgwMd29s
ZlNTTCBJbmMuMRQwEgYDVQQLDAtFbmdpbmVlcmluZzEUMBIGA1UEAwwLU2VydmVy
IDAgQ0ExHzAdBgkqhkiG9w0BCQEWEGluZm9Ad29sZnNzbC5jb22CAW4wCQYDVR0T
BAIwADANBgkqhkiG9w0BAQUFAAOCAQEAhFFP4KVKvC9t4qoTajDA+WE9WZp6Qp3G
xcF5OviDim4NR7mwm0nod9nksGokk8gyUumli28X1FrTuKoeClAVqWk8PGMUH87t
zVg+aC4eb/Coq21oYJ2MP5W+7mW55yUa89Jrj3DRn12nLw2ypAug0ko9Tpvj5dtc
07oIQQeqxLfX+f6kLWmUSrfp+hhSkAFTVwiiJYWS9/I1/QXCzuPlGLg0toBupeYG
T5Kl6lZ+AP9bXReQg7sQrBH0SdCB9fPO+PNGwfxTOOsLRkwb7N/udMA6ZvGkAvZR
XXK/a2h7LBF9CExw3ZPMtLlqqineebmTbcRSirfF6aNDEVlIUbCczg==
-----END CERTIFICATE-----
Certificate:
    Data:
        Version: 3 (0x2)
        Serial Number: 110 (0x6e)
    Signature Algorithm: sha1WithRSAEncryption
        Issuer: C=US, ST=Washington, L=Seattle, O=wolfSSL Inc., OU=Engineering, CN=Server 0 CA/emailAddress=info@wolfssl.com
        Validity
            Not Before: Apr 13 15:23:10 2018 GMT
            Not After : Jan  7 15:23:10 2021 GMT
        Subject: C=US, ST=Washington, L=Seattle, O=wolfSSL Inc., OU=Engineering, CN=Server 0-1 CA/emailAddress=info@wolfssl.com
        Subject Public Key Info:
            Public Key Algorithm: rsaEncryption
                Public-Key: (2048 bit)
                Modulus:
                    00:c0:95:08:e1:57:41:f2:71:6d:b7:d2:45:41:27:
                    01:65:c6:45:ae:f2:bc:24:30:b8:95:ce:2f:4e:d6:
                    f6:1c:88:bc:7c:9f:fb:a8:67:7f:fe:5c:9c:51:75:
                    f7:8a:ca:07:e7:35:2f:8f:e1:bd:7b:c0:2f:7c:ab:
                    64:a8:17:fc:ca:5d:7b:ba:e0:21:e5:72:2e:6f:2e:
                    86:d8:95:73:da:ac:1b:53:b9:5f:3f:d7:19:0d:25:
                    4f:e1:63:63:51:8b:0b:64:3f:ad:43:b8:a5:1c:5c:
                    34:b3:ae:00:a0:63:c5:f6:7f:0b:59:68:78:73:a6:
                    8c:18:a9:02:6d:af:c3:19:01:2e:b8:10:e3:c6:cc:
                    40:b4:69:a3:46:33:69:87:6e:c4:bb:17:a6:f3:e8:
                    dd:ad:73:bc:7b:2f:21:b5:fd:66:51:0c:bd:54:b3:
                    e1:6d:5f:1c:bc:23:73:d1:09:03:89:14:d2:10:b9:
                    64:c3:2a:d0:a1:96:4a:bc:e1:d4:1a:5b:c7:a0:c0:
                    c1:63:78:0f:44:37:30:32:96:80:32:23:95:a1:77:
                    ba:13:d2:97:73:e2:5d:25:c9:6a:0d:c3:39:60:a4:
                    b4:b0:69:42:42:09:e9:d8:08:bc:33:20:b3:58:22:
                    a7:aa:eb:c4:e1:e6:61:83:c5:d2:96:df:d9:d0:4f:
                    ad:d7
                Exponent: 65537 (0x10001)
        X509v3 extensions:
            X509v3 Subject Key Identifier: 
                B3:11:32:C9:92:98:84:E2:C9:F8:D0:3B:6E:03:42:CA:1F:0E:8E:3C
            X509v3 Authority Key Identifier: 
                keyid:B3:11:32:C9:92:98:84:E2:C9:F8:D0:3B:6E:03:42:CA:1F:0E:8E:3C
                DirName:/C=US/ST=Montana/L=Bozeman/O=Sawtooth/OU=Consulting/CN=www.wolfssl.com/emailAddress=info@wolfssl.com
                serial:64

            X509v3 Basic Constraints: 
                CA:TRUE, pathlen:1
            X509v3 Key Usage: 
                Certificate Sign, CRL Sign
    Signature Algorithm: sha1WithRSAEncryption
         15:ef:23:ef:d6:6d:8a:77:cd:20:47:64:1f:c3:65:0c:93:79:
         a9:9e:a0:c7:bc:10:57:e6:ab:58:20:af:b1:fd:25:09:c9:72:
         a9:18:16:24:e7:8e:9a:e2:6d:17:2d:66:8a:5f:75:83:ee:ac:
         58:be:81:51:11:0d:4b:ee:f1:08:de:dc:ac:24:44:ab:08:a6:
         ad:ee:72:91:45:0e:f9:c9:ea:14:81:21:d2:09:02:20:f3:ea:
         ab:75:f1:33:a9:32:2e:a2:f9:06:e9:bf:a4:0e:88:a0:4a:9c:
         25:6f:40:34:9c:62:49:26:6f:bb:68:a9:c5:e5:a3:49:35:0b:
         76:f3:44:1c:53:1d:e2:d6:5b:b7:a4:a3:9a:a9:b2:f9:06:43:
         23:17:e7:3e:f5:01:ac:e8:11:39:d6:5f:23:3c:43:c5:01:6a:
         45:b7:15:4e:82:89:45:f9:8b:ab:ba:4e:f2:ff:f3:5d:5d:fe:
         e1:e9:ee:e4:bf:b3:a6:58:2e:79:11:47:ce:5d:5c:52:82:d1:
         45:bd:1f:50:41:57:a7:39:34:ec:e5:50:de:e5:9c:5f:ef:e3:
         9c:39:de:e4:7e:d1:03:ad:96:06:f9:69:bc:80:25:da:75:88:
         61:99:8d:6e:f1:51:ce:a0:ba:56:d4:de:78:65:ed:2a:b2:82:
         ce:7a:c4:ef
-----BEGIN CERTIFICATE-----
MIIEtjCCA56gAwIBAgIBbjANBgkqhkiG9w0BAQUFADCBmDELMAkGA1UEBhMCVVMx
EzARBgNVBAgMCldhc2hpbmd0b24xEDAOBgNVBAcMB1NlYXR0bGUxFTATBgNVBAoM
DHdvbGZTU0wgSW5jLjEUMBIGA1UECwwLRW5naW5lZXJpbmcxFDASBgNVBAMMC1Nl
cnZlciAwIENBMR8wHQYJKoZIhvcNAQkBFhBpbmZvQHdvbGZzc2wuY29tMB4XDTE4
MDQxMzE1MjMxMFoXDTIxMDEwNzE1MjMxMFowgZoxCzAJBgNVBAYTAlVTMRMwEQYD
VQQIDApXYXNoaW5ndG9uMRAwDgYDVQQHDAdTZWF0dGxlMRUwEwYDVQQKDAx3b2xm
U1NMIEluYy4xFDASBgNVBAsMC0VuZ2luZWVyaW5nMRYwFAYDVQQDDA1TZXJ2ZXIg
MC0xIENBMR8wHQYJKoZIhvcNAQkBFhBpbmZvQHdvbGZzc2wuY29tMIIBIjANBgkq
hkiG9w0BAQEFAAOCAQ8AMIIBCgKCAQEAwJUI4VdB8nFtt9JFQScBZcZFrvK8JDC4
lc4vTtb2HIi8fJ/7qGd//lycUXX3isoH5zUvj+G9e8AvfKtkqBf8yl17uuAh5XIu
by6G2JVz2qwbU7lfP9cZDSVP4WNjUYsLZD+tQ7ilHFw0s64AoGPF9n8LWWh4c6aM
GKkCba/DGQEuuBDjxsxAtGmjRjNph27Euxem8+jdrXO8ey8htf1mUQy9VLPhbV8c
vCNz0QkDiRTSELlkwyrQoZZKvOHUGlvHoMDBY3gPRDcwMpaAMiOVoXe6E9KXc+Jd
JclqDcM5YKS0sGlCQgnp2Ai8MyCzWCKnquvE4eZhg8XSlt/Z0E+t1wIDAQABo4IB
BTCCAQEwHQYDVR0OBBYEFLMRMsmSmITiyfjQO24DQsofDo48MIHBBgNVHSMEgbkw
gbaAFLMRMsmSmITiyfjQO24DQsofDo48oYGapIGXMIGUMQswCQYDVQQGEwJVUzEQ
MA4GA1UECAwHTW9udGFuYTEQMA4GA1UEBwwHQm96ZW1hbjERMA8GA1UECgwIU2F3
dG9vdGgxEzARBgNVBAsMCkNvbnN1bHRpbmcxGDAWBgNVBAMMD3d3dy53b2xmc3Ns
LmNvbTEfMB0GCSqGSIb3DQEJARYQaW5mb0B3b2xmc3NsLmNvbYIBZDAPBgNVHRME
CDAGAQH/AgEBMAsGA1UdDwQEAwIBBjANBgkqhkiG9w0BAQUFAAOCAQEAFe8j79Zt
infNIEdkH8NlDJN5qZ6gx7wQV+arWCCvsf0lCclyqRgWJOeOmuJtFy1mil91g+6s
WL6BURENS+7xCN7crCREqwimre5ykUUO+cnqFIEh0gkCIPPqq3XxM6kyLqL5Bum/
pA6IoEqcJW9ANJxiSSZvu2ipxeWjSTULdvNEHFMd4tZbt6Sjmqmy+QZDIxfnPvUB
rOgROdZfIzxDxQFqRbcVToKJRfmLq7pO8v/zXV3+4enu5L+zplgueRFHzl1cUoLR
Rb0fUEFXpzk07OVQ3uWcX+/jnDne5H7RA62WBvlpvIAl2nWIYZmNbvFRzqC6VtTe
eGXtKrKCznrE7w==
-----END CERTIFICATE-----
Certificate:
    Data:
        Version: 3 (0x2)
        Serial Number: 100 (0x64)
    Signature Algorithm: sha1WithRSAEncryption
        Issuer: C=US, ST=Montana, L=Bozeman, O=Sawtooth, OU=Consulting, CN=www.wolfssl.com/emailAddress=info@wolfssl.com
        Validity
            Not Before: Apr 13 15:23:10 2018 GMT
            Not After : Jan  7 15:23:10 2021 GMT
        Subject: C=US, ST=Washington, L=Seattle, O=wolfSSL Inc., OU=Engineering, CN=Server 0 CA/emailAddress=info@wolfssl.com
        Subject Public Key Info:
            Public Key Algorithm: rsaEncryption
                Public-Key: (2048 bit)
                Modulus:
                    00:c0:95:08:e1:57:41:f2:71:6d:b7:d2:45:41:27:
                    01:65:c6:45:ae:f2:bc:24:30:b8:95:ce:2f:4e:d6:
                    f6:1c:88:bc:7c:9f:fb:a8:67:7f:fe:5c:9c:51:75:
                    f7:8a:ca:07:e7:35:2f:8f:e1:bd:7b:c0:2f:7c:ab:
                    64:a8:17:fc:ca:5d:7b:ba:e0:21:e5:72:2e:6f:2e:
                    86:d8:95:73:da:ac:1b:53:b9:5f:3f:d7:19:0d:25:
                    4f:e1:63:63:51:8b:0b:64:3f:ad:43:b8:a5:1c:5c:
                    34:b3:ae:00:a0:63:c5:f6:7f:0b:59:68:78:73:a6:
                    8c:18:a9:02:6d:af:c3:19:01:2e:b8:10:e3:c6:cc:
                    40:b4:69:a3:46:33:69:87:6e:c4:bb:17:a6:f3:e8:
                    dd:ad:73:bc:7b:2f:21:b5:fd:66:51:0c:bd:54:b3:
                    e1:6d:5f:1c:bc:23:73:d1:09:03:89:14:d2:10:b9:
                    64:c3:2a:d0:a1:96:4a:bc:e1:d4:1a:5b:c7:a0:c0:
                    c1:63:78:0f:44:37:30:32:96:80:32:23:95:a1:77:
                    ba:13:d2:97:73:e2:5d:25:c9:6a:0d:c3:39:60:a4:
                    b4:b0:69:42:42:09:e9:d8:08:bc:33:20:b3:58:22:
                    a7:aa:eb:c4:e1:e6:61:83:c5:d2:96:df:d9:d0:4f:
                    ad:d7
                Exponent: 65537 (0x10001)
        X509v3 extensions:
            X509v3 Subject Key Identifier: 
                B3:11:32:C9:92:98:84:E2:C9:F8:D0:3B:6E:03:42:CA:1F:0E:8E:3C
            X509v3 Authority Key Identifier: 
                keyid:27:8E:67:11:74:C3:26:1D:3F:ED:33:63:B3:A4:D8:1D:30:E5:E8:D5
                DirName:/C=US/ST=Montana/L=Bozeman/O=Sawtooth/OU=Consulting/CN=www.wolfssl.com/emailAddress=info@wolfssl.com
                serial:86:FF:F5:8E:10:DE:B8:FB

            X509v3 Basic Constraints: 
                CA:TRUE, pathlen:0
            X509v3 Key Usage: 
                Certificate Sign, CRL Sign
    Signature Algorithm: sha1WithRSAEncryption
         8c:bd:c3:71:57:ce:dd:02:36:8c:d3:71:ec:d1:25:65:7b:48:
         4d:e2:77:d7:62:00:bd:0f:c9:50:4b:50:cb:d0:5a:8b:09:3f:
         21:d1:f5:1f:2f:14:44:87:0d:99:fa:0c:5c:1d:12:d8:e6:c5:
         a0:2c:c1:12:ee:fa:3c:fd:e9:2e:23:58:be:60:a2:9f:e7:50:
         be:d1:d8:2f:27:67:90:8a:1f:34:13:ca:81:07:bb:ca:de:86:
         59:bb:80:65:4f:b7:fa:5d:42:6d:e5:c8:08:25:5d:c9:78:3d:
         70:09:42:27:85:82:7f:5c:22:32:30:94:21:47:3f:09:bf:c4:
         d2:1a:98:1b:f0:5d:3d:51:12:da:9f:1c:a7:44:d5:54:bc:5e:
         04:69:72:cc:cf:4f:f3:b1:d7:49:db:4c:0e:d1:42:8f:ad:ba:
         90:92:5b:7b:9d:13:8f:58:46:3d:a4:2d:9d:a2:9d:6d:4b:e5:
         e4:d6:4c:61:a9:e1:78:33:5c:3d:78:0e:4f:0b:3d:fc:4a:6d:
         44:71:27:e1:1d:95:95:b6:9e:ba:0e:ca:72:01:fe:8e:f6:12:
         ad:71:15:82:54:68:23:ea:49:0c:30:05:ea:1e:68:cc:c0:7c:
         63:04:8e:1b:fa:79:96:95:1b:a0:0d:af:f7:85:7d:09:49:24:
         2e:8f:9e:ff
-----BEGIN CERTIFICATE-----
MIIEuDCCA6CgAwIBAgIBZDANBgkqhkiG9w0BAQUFADCBlDELMAkGA1UEBhMCVVMx
EDAOBgNVBAgMB01vbnRhbmExEDAOBgNVBAcMB0JvemVtYW4xETAPBgNVBAoMCFNh
d3Rvb3RoMRMwEQYDVQQLDApDb25zdWx0aW5nMRgwFgYDVQQDDA93d3cud29sZnNz
bC5jb20xHzAdBgkqhkiG9w0BCQEWEGluZm9Ad29sZnNzbC5jb20wHhcNMTgwNDEz
MTUyMzEwWhcNMjEwMTA3MTUyMzEwWjCBmDELMAkGA1UEBhMCVVMxEzARBgNVBAgM
Cldhc2hpbmd0b24xEDAOBgNVBAcMB1NlYXR0bGUxFTATBgNVBAoMDHdvbGZTU0wg
SW5jLjEUMBIGA1UECwwLRW5naW5lZXJpbmcxFDASBgNVBAMMC1NlcnZlciAwIENB
MR8wHQYJKoZIhvcNAQkBFhBpbmZvQHdvbGZzc2wuY29tMIIBIjANBgkqhkiG9w0B
AQEFAAOCAQ8AMIIBCgKCAQEAwJUI4VdB8nFtt9JFQScBZcZFrvK8JDC4lc4vTtb2
HIi8fJ/7qGd//lycUXX3isoH5zUvj+G9e8AvfKtkqBf8yl17uuAh5XIuby6G2JVz
2qwbU7lfP9cZDSVP4WNjUYsLZD+tQ7ilHFw0s64AoGPF9n8LWWh4c6aMGKkCba/D
GQEuuBDjxsxAtGmjRjNph27Euxem8+jdrXO8ey8htf1mUQy9VLPhbV8cvCNz0QkD
iRTSELlkwyrQoZZKvOHUGlvHoMDBY3gPRDcwMpaAMiOVoXe6E9KXc+JdJclqDcM5
YKS0sGlCQgnp2Ai8MyCzWCKnquvE4eZhg8XSlt/Z0E+t1wIDAQABo4IBDTCCAQkw
HQYDVR0OBBYEFLMRMsmSmITiyfjQO24DQsofDo48MIHJBgNVHSMEgcEwgb6AFCeO
ZxF0wyYdP+0zY7Ok2B0w5ejVoYGapIGXMIGUMQswCQYDVQQGEwJVUzEQMA4GA1UE
CAwHTW9udGFuYTEQMA4GA1UEBwwHQm96ZW1hbjERMA8GA1UECgwIU2F3dG9vdGgx
EzARBgNVBAsMCkNvbnN1bHRpbmcxGDAWBgNVBAMMD3d3dy53b2xmc3NsLmNvbTEf
MB0GCSqGSIb3DQEJARYQaW5mb0B3b2xmc3NsLmNvbYIJAIb/9Y4Q3rj7MA8GA1Ud
EwQIMAYBAf8CAQAwCwYDVR0PBAQDAgEGMA0GCSqGSIb3DQEBBQUAA4IBAQCMvcNx
V87dAjaM03Hs0SVle0hN4nfXYgC9D8lQS1DL0FqLCT8h0fUfLxREhw2Z+gxcHRLY
5sWgLMES7vo8/ekuI1i+YKKf51C+0dgvJ2eQih80E8qBB7vK3oZZu4BlT7f6XUJt
5cgIJV3JeD1wCUInhYJ/XCIyMJQhRz8Jv8TSGpgb8F09URLanxynRNVUvF4EaXLM
z0/zsddJ20wO0UKPrbqQklt7nROPWEY9pC2dop1tS+Xk1kxhqeF4M1w9eA5PCz38
Sm1EcSfhHZWVtp66DspyAf6O9hKtcRWCVGgj6kkMMAXqHmjMwHxjBI4b+nmWlRug
Da/3hX0JSSQuj57/
-----END CERTIFICATE-----
