Certificate:
    Data:
        Version: 3 (0x2)
        Serial Number: 107 (0x6b)
    Signature Algorithm: sha1WithRSAEncryption
        Issuer: C=US, ST=Washington, L=Seattle, O=wolfSSL Inc., OU=Engineering, CN=Server 128 CA/emailAddress=info@wolfssl.com
        Validity
            Not Before: Apr 13 15:23:10 2018 GMT
            Not After : Jan  7 15:23:10 2021 GMT
        Subject: C=US, ST=Washington, L=Seattle, O=wolfSSL Inc., OU=Engineering, CN=Server 128/emailAddress=info@wolfssl.com
        Subject Public Key Info:
            Public Key Algorithm: rsaEncryption
                Public-Key: (2048 bit)
                Modulus:
                    00:c0:95:08:e1:57:41:f2:71:6d:b7:d2:45:41:27:
                    01:65:c6:45:ae:f2:bc:24:30:b8:95:ce:2f:4e:d6:
                    f6:1c:88:bc:7c:9f:fb:a8:67:7f:fe:5c:9c:51:75:
                    f7:8a:ca:07:e7:35:2f:8f:e1:bd:7b:c0:2f:7c:ab:
                    64:a8:17:fc:ca:5d:7b:ba:e0:21:e5:72:2e:6f:2e:
                    86:d8:95:73:da:ac:1b:53:b9:5f:3f:d7:19:0d:25:
                    4f:e1:63:63:51:8b:0b:64:3f:ad:43:b8:a5:1c:5c:
                    34:b3:ae:00:a0:63:c5:f6:7f:0b:59:68:78:73:a6:
                    8c:18:a9:02:6d:af:c3:19:01:2e:b8:10:e3:c6:cc:
                    40:b4:69:a3:46:33:69:87:6e:c4:bb:17:a6:f3:e8:
                    dd:ad:73:bc:7b:2f:21:b5:fd:66:51:0c:bd:54:b3:
                    e1:6d:5f:1c:bc:23:73:d1:09:03:89:14:d2:10:b9:
                    64:c3:2a:d0:a1:96:4a:bc:e1:d4:1a:5b:c7:a0:c0:
                    c1:63:78:0f:44:37:30:32:96:80:32:23:95:a1:77:
                    ba:13:d2:97:73:e2:5d:25:c9:6a:0d:c3:39:60:a4:
                    b4:b0:69:42:42:09:e9:d8:08:bc:33:20:b3:58:22:
                    a7:aa:eb:c4:e1:e6:61:83:c5:d2:96:df:d9:d0:4f:
                    ad:d7
                Exponent: 65537 (0x10001)
        X509v3 extensions:
            X509v3 Subject Key Identifier: 
                B3:11:32:C9:92:98:84:E2:C9:F8:D0:3B:6E:03:42:CA:1F:0E:8E:3C
            X509v3 Authority Key Identifier: 
                keyid:B3:11:32:C9:92:98:84:E2:C9:F8:D0:3B:6E:03:42:CA:1F:0E:8E:3C
                DirName:/C=US/ST=Montana/L=Bozeman/O=Sawtooth/OU=Consulting/CN=www.wolfssl.com/emailAddress=info@wolfssl.com
                serial:6A

            X509v3 Basic Constraints: 
                CA:FALSE
    Signature Algorithm: sha1WithRSAEncryption
         a5:a7:5d:17:a3:a7:15:08:10:89:5a:47:84:ee:63:dc:c7:f5:
         b0:ae:a4:99:c2:b1:02:bf:97:8a:cd:d1:ab:f5:87:b6:0b:98:
         30:e0:33:f1:40:db:2c:33:79:98:ab:87:43:b4:10:8a:4f:92:
         cf:97:49:fc:e8:a6:7a:52:4b:6a:dc:b4:ed:e4:55:2f:3c:dc:
         56:b3:2c:a8:4c:fa:6a:55:ae:7e:f1:e5:d6:64:96:e6:67:3e:
         46:d0:b8:b2:eb:cb:98:a5:d1:7c:d8:cc:de:ba:39:4d:a5:b3:
         45:45:62:0e:05:be:60:54:6d:4d:e8:90:e3:ad:5e:86:52:43:
         12:60:5b:fa:07:33:10:fb:6d:a6:c0:8c:3d:8a:9a:8a:1c:3e:
         7a:34:bf:41:f0:d2:d5:5d:16:00:ce:52:51:2b:13:a2:ef:be:
         07:dd:09:91:54:a1:74:2d:53:d2:db:94:f9:a1:98:62:1f:06:
         0c:69:3b:34:2a:9a:00:3c:9b:2f:c1:46:80:c2:dd:c7:7e:95:
         ea:f7:05:19:29:b0:82:02:b8:b6:f3:a1:bf:00:5e:23:77:6f:
         d2:63:c2:29:df:67:47:5a:2c:69:ce:6c:88:28:43:34:da:6c:
         d4:2d:ee:cd:ef:fb:1a:69:e5:d7:8e:f4:2b:de:b2:b0:7d:8c:
         5c:50:91:d9
-----BEGIN CERTIFICATE-----
MIIEoDCCA4igAwIBAgIBazANBgkqhkiG9w0BAQUFADCBmjELMAkGA1UEBhMCVVMx
EzARBgNVBAgMCldhc2hpbmd0b24xEDAOBgNVBAcMB1NlYXR0bGUxFTATBgNVBAoM
DHdvbGZTU0wgSW5jLjEUMBIGA1UECwwLRW5naW5lZXJpbmcxFjAUBgNVBAMMDVNl
cnZlciAxMjggQ0ExHzAdBgkqhkiG9w0BCQEWEGluZm9Ad29sZnNzbC5jb20wHhcN
MTgwNDEzMTUyMzEwWhcNMjEwMTA3MTUyMzEwWjCBlzELMAkGA1UEBhMCVVMxEzAR
BgNVBAgMCldhc2hpbmd0b24xEDAOBgNVBAcMB1NlYXR0bGUxFTATBgNVBAoMDHdv
bGZTU0wgSW5jLjEUMBIGA1UECwwLRW5naW5lZXJpbmcxEzARBgNVBAMMClNlcnZl
ciAxMjgxHzAdBgkqhkiG9w0BCQEWEGluZm9Ad29sZnNzbC5jb20wggEiMA0GCSqG
SIb3DQEBAQUAA4IBDwAwggEKAoIBAQDAlQjhV0HycW230kVBJwFlxkWu8rwkMLiV
zi9O1vYciLx8n/uoZ3/+XJxRdfeKygfnNS+P4b17wC98q2SoF/zKXXu64CHlci5v
LobYlXParBtTuV8/1xkNJU/hY2NRiwtkP61DuKUcXDSzrgCgY8X2fwtZaHhzpowY
qQJtr8MZAS64EOPGzEC0aaNGM2mHbsS7F6bz6N2tc7x7LyG1/WZRDL1Us+FtXxy8
I3PRCQOJFNIQuWTDKtChlkq84dQaW8egwMFjeA9ENzAyloAyI5Whd7oT0pdz4l0l
yWoNwzlgpLSwaUJCCenYCLwzILNYIqeq68Th5mGDxdKW39nQT63XAgMBAAGjgfEw
ge4wHQYDVR0OBBYEFLMRMsmSmITiyfjQO24DQsofDo48MIHBBgNVHSMEgbkwgbaA
FLMRMsmSmITiyfjQO24DQsofDo48oYGapIGXMIGUMQswCQYDVQQGEwJVUzEQMA4G
A1UECAwHTW9udGFuYTEQMA4GA1UEBwwHQm96ZW1hbjERMA8GA1UECgwIU2F3dG9v
dGgxEzARBgNVBAsMCkNvbnN1bHRpbmcxGDAWBgNVBAMMD3d3dy53b2xmc3NsLmNv
bTEfMB0GCSqGSIb3DQEJARYQaW5mb0B3b2xmc3NsLmNvbYIBajAJBgNVHRMEAjAA
MA0GCSqGSIb3DQEBBQUAA4IBAQClp10Xo6cVCBCJWkeE7mPcx/WwrqSZwrECv5eK
zdGr9Ye2C5gw4DPxQNssM3mYq4dDtBCKT5LPl0n86KZ6Uktq3LTt5FUvPNxWsyyo
TPpqVa5+8eXWZJbmZz5G0Liy68uYpdF82MzeujlNpbNFRWIOBb5gVG1N6JDjrV6G
UkMSYFv6BzMQ+22mwIw9ipqKHD56NL9B8NLVXRYAzlJRKxOi774H3QmRVKF0LVPS
25T5oZhiHwYMaTs0KpoAPJsvwUaAwt3HfpXq9wUZKbCCAri286G/AF4jd2/SY8Ip
32dHWixpzmyIKEM02mzULe7N7/saaeXXjvQr3rKwfYxcUJHZ
-----END CERTIFICATE-----
Certificate:
    Data:
        Version: 3 (0x2)
        Serial Number: 106 (0x6a)
    Signature Algorithm: sha1WithRSAEncryption
        Issuer: C=US, ST=Montana, L=Bozeman, O=Sawtooth, OU=Consulting, CN=www.wolfssl.com/emailAddress=info@wolfssl.com
        Validity
            Not Before: Apr 13 15:23:10 2018 GMT
            Not After : Jan  7 15:23:10 2021 GMT
        Subject: C=US, ST=Washington, L=Seattle, O=wolfSSL Inc., OU=Engineering, CN=Server 128 CA/emailAddress=info@wolfssl.com
        Subject Public Key Info:
            Public Key Algorithm: rsaEncryption
                Public-Key: (2048 bit)
                Modulus:
                    00:c0:95:08:e1:57:41:f2:71:6d:b7:d2:45:41:27:
                    01:65:c6:45:ae:f2:bc:24:30:b8:95:ce:2f:4e:d6:
                    f6:1c:88:bc:7c:9f:fb:a8:67:7f:fe:5c:9c:51:75:
                    f7:8a:ca:07:e7:35:2f:8f:e1:bd:7b:c0:2f:7c:ab:
                    64:a8:17:fc:ca:5d:7b:ba:e0:21:e5:72:2e:6f:2e:
                    86:d8:95:73:da:ac:1b:53:b9:5f:3f:d7:19:0d:25:
                    4f:e1:63:63:51:8b:0b:64:3f:ad:43:b8:a5:1c:5c:
                    34:b3:ae:00:a0:63:c5:f6:7f:0b:59:68:78:73:a6:
                    8c:18:a9:02:6d:af:c3:19:01:2e:b8:10:e3:c6:cc:
                    40:b4:69:a3:46:33:69:87:6e:c4:bb:17:a6:f3:e8:
                    dd:ad:73:bc:7b:2f:21:b5:fd:66:51:0c:bd:54:b3:
                    e1:6d:5f:1c:bc:23:73:d1:09:03:89:14:d2:10:b9:
                    64:c3:2a:d0:a1:96:4a:bc:e1:d4:1a:5b:c7:a0:c0:
                    c1:63:78:0f:44:37:30:32:96:80:32:23:95:a1:77:
                    ba:13:d2:97:73:e2:5d:25:c9:6a:0d:c3:39:60:a4:
                    b4:b0:69:42:42:09:e9:d8:08:bc:33:20:b3:58:22:
                    a7:aa:eb:c4:e1:e6:61:83:c5:d2:96:df:d9:d0:4f:
                    ad:d7
                Exponent: 65537 (0x10001)
        X509v3 extensions:
            X509v3 Subject Key Identifier: 
                B3:11:32:C9:92:98:84:E2:C9:F8:D0:3B:6E:03:42:CA:1F:0E:8E:3C
            X509v3 Authority Key Identifier: 
                keyid:27:8E:67:11:74:C3:26:1D:3F:ED:33:63:B3:A4:D8:1D:30:E5:E8:D5
                DirName:/C=US/ST=Montana/L=Bozeman/O=Sawtooth/OU=Consulting/CN=www.wolfssl.com/emailAddress=info@wolfssl.com
                serial:86:FF:F5:8E:10:DE:B8:FB

            X509v3 Basic Constraints: 
                CA:TRUE, pathlen:128
            X509v3 Key Usage: 
                Certificate Sign, CRL Sign
    Signature Algorithm: sha1WithRSAEncryption
         23:cf:7d:44:56:10:44:29:12:31:cc:c4:9b:b8:a8:dd:4e:c3:
         9f:2c:f5:7f:1b:d7:05:43:82:dd:c8:19:be:b9:54:d8:32:4d:
         88:2e:38:fb:be:ff:9d:fc:0a:99:8d:d3:67:08:22:a4:bb:62:
         5a:ec:49:3f:3a:38:cb:8e:f0:bd:42:d7:f7:16:43:31:00:df:
         10:53:c9:35:3f:bf:b9:4b:14:d0:f6:7f:d2:04:ef:69:c4:e6:
         53:d5:74:17:e1:f6:63:90:30:a2:90:9f:f1:13:1a:0e:bf:ec:
         c0:e2:ae:41:40:20:41:55:84:69:e9:39:04:84:ab:f8:88:29:
         31:4c:15:19:12:ab:6f:f0:62:fe:83:a9:dc:52:52:7b:3a:14:
         86:8f:45:da:25:7d:c1:f3:21:84:84:bb:82:d6:ef:f9:4b:ec:
         f4:21:87:ed:c1:53:77:8e:98:05:50:2c:d9:1f:42:30:dd:8b:
         85:57:3c:5a:fa:bd:06:55:11:95:3f:7f:fb:02:50:7d:88:57:
         0b:c8:a2:b3:fc:d0:fd:40:19:03:9a:8e:bb:d5:38:b0:d0:d6:
         e3:e2:fa:45:91:2c:18:c7:9a:24:f0:78:ee:c2:0d:a0:53:4e:
         c7:68:ad:80:6e:82:35:4b:1d:c7:15:b9:db:40:63:08:56:72:
         56:a2:55:7e
-----BEGIN CERTIFICATE-----
MIIEuzCCA6OgAwIBAgIBajANBgkqhkiG9w0BAQUFADCBlDELMAkGA1UEBhMCVVMx
EDAOBgNVBAgMB01vbnRhbmExEDAOBgNVBAcMB0JvemVtYW4xETAPBgNVBAoMCFNh
d3Rvb3RoMRMwEQYDVQQLDApDb25zdWx0aW5nMRgwFgYDVQQDDA93d3cud29sZnNz
bC5jb20xHzAdBgkqhkiG9w0BCQEWEGluZm9Ad29sZnNzbC5jb20wHhcNMTgwNDEz
MTUyMzEwWhcNMjEwMTA3MTUyMzEwWjCBmjELMAkGA1UEBhMCVVMxEzARBgNVBAgM
Cldhc2hpbmd0b24xEDAOBgNVBAcMB1NlYXR0bGUxFTATBgNVBAoMDHdvbGZTU0wg
SW5jLjEUMBIGA1UECwwLRW5naW5lZXJpbmcxFjAUBgNVBAMMDVNlcnZlciAxMjgg
Q0ExHzAdBgkqhkiG9w0BCQEWEGluZm9Ad29sZnNzbC5jb20wggEiMA0GCSqGSIb3
DQEBAQUAA4IBDwAwggEKAoIBAQDAlQjhV0HycW230kVBJwFlxkWu8rwkMLiVzi9O
1vYciLx8n/uoZ3/+XJxRdfeKygfnNS+P4b17wC98q2SoF/zKXXu64CHlci5vLobY
lXParBtTuV8/1xkNJU/hY2NRiwtkP61DuKUcXDSzrgCgY8X2fwtZaHhzpowYqQJt
r8MZAS64EOPGzEC0aaNGM2mHbsS7F6bz6N2tc7x7LyG1/WZRDL1Us+FtXxy8I3PR
CQOJFNIQuWTDKtChlkq84dQaW8egwMFjeA9ENzAyloAyI5Whd7oT0pdz4l0lyWoN
wzlgpLSwaUJCCenYCLwzILNYIqeq68Th5mGDxdKW39nQT63XAgMBAAGjggEOMIIB
CjAdBgNVHQ4EFgQUsxEyyZKYhOLJ+NA7bgNCyh8OjjwwgckGA1UdIwSBwTCBvoAU
J45nEXTDJh0/7TNjs6TYHTDl6NWhgZqkgZcwgZQxCzAJBgNVBAYTAlVTMRAwDgYD
VQQIDAdNb250YW5hMRAwDgYDVQQHDAdCb3plbWFuMREwDwYDVQQKDAhTYXd0b290
aDETMBEGA1UECwwKQ29uc3VsdGluZzEYMBYGA1UEAwwPd3d3LndvbGZzc2wuY29t
MR8wHQYJKoZIhvcNAQkBFhBpbmZvQHdvbGZzc2wuY29tggkAhv/1jhDeuPswEAYD
VR0TBAkwBwEB/wICAIAwCwYDVR0PBAQDAgEGMA0GCSqGSIb3DQEBBQUAA4IBAQAj
z31EVhBEKRIxzMSbuKjdTsOfLPV/G9cFQ4LdyBm+uVTYMk2ILjj7vv+d/AqZjdNn
CCKku2Ja7Ek/OjjLjvC9Qtf3FkMxAN8QU8k1P7+5SxTQ9n/SBO9pxOZT1XQX4fZj
kDCikJ/xExoOv+zA4q5BQCBBVYRp6TkEhKv4iCkxTBUZEqtv8GL+g6ncUlJ7OhSG
j0XaJX3B8yGEhLuC1u/5S+z0IYftwVN3jpgFUCzZH0Iw3YuFVzxa+r0GVRGVP3/7
AlB9iFcLyKKz/ND9QBkDmo671Tiw0Nbj4vpFkSwYx5ok8Hjuwg2gU07HaK2AboI1
Sx3HFbnbQGMIVnJWolV+
-----END CERTIFICATE-----
