Certificate:
    Data:
        Version: 3 (0x2)
        Serial Number: 101 (0x65)
    Signature Algorithm: sha1WithRSAEncryption
        Issuer: C=US, ST=Washington, L=Seattle, O=wolfSSL Inc., OU=Engineering, CN=Server 0 CA/emailAddress=info@wolfssl.com
        Validity
            Not Before: Apr 13 15:23:10 2018 GMT
            Not After : Jan  7 15:23:10 2021 GMT
        Subject: C=US, ST=Washington, L=Seattle, O=wolfSSL Inc., OU=Engineering, CN=Server 0/emailAddress=info@wolfssl.com
        Subject Public Key Info:
            Public Key Algorithm: rsaEncryption
                Public-Key: (2048 bit)
                Modulus:
                    00:c0:95:08:e1:57:41:f2:71:6d:b7:d2:45:41:27:
                    01:65:c6:45:ae:f2:bc:24:30:b8:95:ce:2f:4e:d6:
                    f6:1c:88:bc:7c:9f:fb:a8:67:7f:fe:5c:9c:51:75:
                    f7:8a:ca:07:e7:35:2f:8f:e1:bd:7b:c0:2f:7c:ab:
                    64:a8:17:fc:ca:5d:7b:ba:e0:21:e5:72:2e:6f:2e:
                    86:d8:95:73:da:ac:1b:53:b9:5f:3f:d7:19:0d:25:
                    4f:e1:63:63:51:8b:0b:64:3f:ad:43:b8:a5:1c:5c:
                    34:b3:ae:00:a0:63:c5:f6:7f:0b:59:68:78:73:a6:
                    8c:18:a9:02:6d:af:c3:19:01:2e:b8:10:e3:c6:cc:
                    40:b4:69:a3:46:33:69:87:6e:c4:bb:17:a6:f3:e8:
                    dd:ad:73:bc:7b:2f:21:b5:fd:66:51:0c:bd:54:b3:
                    e1:6d:5f:1c:bc:23:73:d1:09:03:89:14:d2:10:b9:
                    64:c3:2a:d0:a1:96:4a:bc:e1:d4:1a:5b:c7:a0:c0:
                    c1:63:78:0f:44:37:30:32:96:80:32:23:95:a1:77:
                    ba:13:d2:97:73:e2:5d:25:c9:6a:0d:c3:39:60:a4:
                    b4:b0:69:42:42:09:e9:d8:08:bc:33:20:b3:58:22:
                    a7:aa:eb:c4:e1:e6:61:83:c5:d2:96:df:d9:d0:4f:
                    ad:d7
                Exponent: 65537 (0x10001)
        X509v3 extensions:
            X509v3 Subject Key Identifier: 
                B3:11:32:C9:92:98:84:E2:C9:F8:D0:3B:6E:03:42:CA:1F:0E:8E:3C
            X509v3 Authority Key Identifier: 
                keyid:B3:11:32:C9:92:98:84:E2:C9:F8:D0:3B:6E:03:42:CA:1F:0E:8E:3C
                DirName:/C=US/ST=Montana/L=Bozeman/O=Sawtooth/OU=Consulting/CN=www.wolfssl.com/emailAddress=info@wolfssl.com
                serial:64

            X509v3 Basic Constraints: 
                CA:FALSE
    Signature Algorithm: sha1WithRSAEncryption
         3d:b1:b9:4a:c7:79:a6:1c:ea:27:76:16:32:3c:96:56:f3:62:
         ce:2e:f5:78:d6:bd:e8:dd:07:2f:fc:38:3d:54:89:bd:ab:dd:
         39:58:4d:78:e3:37:d3:90:98:ea:9f:b9:72:96:eb:5d:28:22:
         2d:6c:8b:3a:c0:67:1d:3e:d5:bd:13:3e:f1:d7:c2:d7:ea:5f:
         cc:da:57:58:c7:e6:66:e3:21:85:65:34:38:59:86:93:ae:1e:
         1c:ba:e5:19:80:96:20:5b:e9:9f:ea:c7:99:b1:db:89:17:7f:
         f9:b4:e8:20:3f:34:e6:79:54:99:86:ee:8c:aa:c2:a3:ce:20:
         c5:00:60:65:73:06:90:8a:88:12:7e:7a:ca:33:99:11:2e:84:
         82:cf:d7:df:83:73:c2:e6:9f:86:f1:f9:ba:ac:cb:95:ad:0f:
         3e:4b:1d:23:57:75:ce:57:bb:cc:78:a2:72:35:b3:c1:a2:e5:
         14:a6:b1:c2:0d:99:2b:83:95:8a:62:69:17:50:1f:9c:a5:0e:
         17:67:47:8a:a9:77:be:c2:03:3a:3b:2b:ab:fb:8a:22:81:e9:
         79:41:76:41:1b:ce:fc:68:24:40:83:88:10:ec:d6:3e:62:63:
         de:f2:2d:bd:08:1d:a5:9b:4c:bc:82:56:59:66:2f:1a:c2:c7:
         60:9d:7a:f7
-----BEGIN CERTIFICATE-----
MIIEnDCCA4SgAwIBAgIBZTANBgkqhkiG9w0BAQUFADCBmDELMAkGA1UEBhMCVVMx
EzARBgNVBAgMCldhc2hpbmd0b24xEDAOBgNVBAcMB1NlYXR0bGUxFTATBgNVBAoM
DHdvbGZTU0wgSW5jLjEUMBIGA1UECwwLRW5naW5lZXJpbmcxFDASBgNVBAMMC1Nl
cnZlciAwIENBMR8wHQYJKoZIhvcNAQkBFhBpbmZvQHdvbGZzc2wuY29tMB4XDTE4
MDQxMzE1MjMxMFoXDTIxMDEwNzE1MjMxMFowgZUxCzAJBgNVBAYTAlVTMRMwEQYD
VQQIDApXYXNoaW5ndG9uMRAwDgYDVQQHDAdTZWF0dGxlMRUwEwYDVQQKDAx3b2xm
U1NMIEluYy4xFDASBgNVBAsMC0VuZ2luZWVyaW5nMREwDwYDVQQDDAhTZXJ2ZXIg
MDEfMB0GCSqGSIb3DQEJARYQaW5mb0B3b2xmc3NsLmNvbTCCASIwDQYJKoZIhvcN
AQEBBQADggEPADCCAQoCggEBAMCVCOFXQfJxbbfSRUEnAWXGRa7yvCQwuJXOL07W
9hyIvHyf+6hnf/5cnFF194rKB+c1L4/hvXvAL3yrZKgX/Mpde7rgIeVyLm8uhtiV
c9qsG1O5Xz/XGQ0lT+FjY1GLC2Q/rUO4pRxcNLOuAKBjxfZ/C1loeHOmjBipAm2v
wxkBLrgQ48bMQLRpo0YzaYduxLsXpvPo3a1zvHsvIbX9ZlEMvVSz4W1fHLwjc9EJ
A4kU0hC5ZMMq0KGWSrzh1Bpbx6DAwWN4D0Q3MDKWgDIjlaF3uhPSl3PiXSXJag3D
OWCktLBpQkIJ6dgIvDMgs1gip6rrxOHmYYPF0pbf2dBPrdcCAwEAAaOB8TCB7jAd
BgNVHQ4EFgQUsxEyyZKYhOLJ+NA7bgNCyh8OjjwwgcEGA1UdIwSBuTCBtoAUsxEy
yZKYhOLJ+NA7bgNCyh8OjjyhgZqkgZcwgZQxCzAJBgNVBAYTAlVTMRAwDgYDVQQI
DAdNb250YW5hMRAwDgYDVQQHDAdCb3plbWFuMREwDwYDVQQKDAhTYXd0b290aDET
MBEGA1UECwwKQ29uc3VsdGluZzEYMBYGA1UEAwwPd3d3LndvbGZzc2wuY29tMR8w
HQYJKoZIhvcNAQkBFhBpbmZvQHdvbGZzc2wuY29tggFkMAkGA1UdEwQCMAAwDQYJ
KoZIhvcNAQEFBQADggEBAD2xuUrHeaYc6id2FjI8llbzYs4u9XjWvejdBy/8OD1U
ib2r3TlYTXjjN9OQmOqfuXKW610oIi1sizrAZx0+1b0TPvHXwtfqX8zaV1jH5mbj
IYVlNDhZhpOuHhy65RmAliBb6Z/qx5mx24kXf/m06CA/NOZ5VJmG7oyqwqPOIMUA
YGVzBpCKiBJ+esozmREuhILP19+Dc8Lmn4bx+bqsy5WtDz5LHSNXdc5Xu8x4onI1
s8Gi5RSmscINmSuDlYpiaRdQH5ylDhdnR4qpd77CAzo7K6v7iiKB6XlBdkEbzvxo
JECDiBDs1j5iY97yLb0IHaWbTLyCVllmLxrCx2Cdevc=
-----END CERTIFICATE-----
Certificate:
    Data:
        Version: 3 (0x2)
        Serial Number: 100 (0x64)
    Signature Algorithm: sha1WithRSAEncryption
        Issuer: C=US, ST=Montana, L=Bozeman, O=Sawtooth, OU=Consulting, CN=www.wolfssl.com/emailAddress=info@wolfssl.com
        Validity
            Not Before: Apr 13 15:23:10 2018 GMT
            Not After : Jan  7 15:23:10 2021 GMT
        Subject: C=US, ST=Washington, L=Seattle, O=wolfSSL Inc., OU=Engineering, CN=Server 0 CA/emailAddress=info@wolfssl.com
        Subject Public Key Info:
            Public Key Algorithm: rsaEncryption
                Public-Key: (2048 bit)
                Modulus:
                    00:c0:95:08:e1:57:41:f2:71:6d:b7:d2:45:41:27:
                    01:65:c6:45:ae:f2:bc:24:30:b8:95:ce:2f:4e:d6:
                    f6:1c:88:bc:7c:9f:fb:a8:67:7f:fe:5c:9c:51:75:
                    f7:8a:ca:07:e7:35:2f:8f:e1:bd:7b:c0:2f:7c:ab:
                    64:a8:17:fc:ca:5d:7b:ba:e0:21:e5:72:2e:6f:2e:
                    86:d8:95:73:da:ac:1b:53:b9:5f:3f:d7:19:0d:25:
                    4f:e1:63:63:51:8b:0b:64:3f:ad:43:b8:a5:1c:5c:
                    34:b3:ae:00:a0:63:c5:f6:7f:0b:59:68:78:73:a6:
                    8c:18:a9:02:6d:af:c3:19:01:2e:b8:10:e3:c6:cc:
                    40:b4:69:a3:46:33:69:87:6e:c4:bb:17:a6:f3:e8:
                    dd:ad:73:bc:7b:2f:21:b5:fd:66:51:0c:bd:54:b3:
                    e1:6d:5f:1c:bc:23:73:d1:09:03:89:14:d2:10:b9:
                    64:c3:2a:d0:a1:96:4a:bc:e1:d4:1a:5b:c7:a0:c0:
                    c1:63:78:0f:44:37:30:32:96:80:32:23:95:a1:77:
                    ba:13:d2:97:73:e2:5d:25:c9:6a:0d:c3:39:60:a4:
                    b4:b0:69:42:42:09:e9:d8:08:bc:33:20:b3:58:22:
                    a7:aa:eb:c4:e1:e6:61:83:c5:d2:96:df:d9:d0:4f:
                    ad:d7
                Exponent: 65537 (0x10001)
        X509v3 extensions:
            X509v3 Subject Key Identifier: 
                B3:11:32:C9:92:98:84:E2:C9:F8:D0:3B:6E:03:42:CA:1F:0E:8E:3C
            X509v3 Authority Key Identifier: 
                keyid:27:8E:67:11:74:C3:26:1D:3F:ED:33:63:B3:A4:D8:1D:30:E5:E8:D5
                DirName:/C=US/ST=Montana/L=Bozeman/O=Sawtooth/OU=Consulting/CN=www.wolfssl.com/emailAddress=info@wolfssl.com
                serial:86:FF:F5:8E:10:DE:B8:FB

            X509v3 Basic Constraints: 
                CA:TRUE, pathlen:0
            X509v3 Key Usage: 
                Certificate Sign, CRL Sign
    Signature Algorithm: sha1WithRSAEncryption
         8c:bd:c3:71:57:ce:dd:02:36:8c:d3:71:ec:d1:25:65:7b:48:
         4d:e2:77:d7:62:00:bd:0f:c9:50:4b:50:cb:d0:5a:8b:09:3f:
         21:d1:f5:1f:2f:14:44:87:0d:99:fa:0c:5c:1d:12:d8:e6:c5:
         a0:2c:c1:12:ee:fa:3c:fd:e9:2e:23:58:be:60:a2:9f:e7:50:
         be:d1:d8:2f:27:67:90:8a:1f:34:13:ca:81:07:bb:ca:de:86:
         59:bb:80:65:4f:b7:fa:5d:42:6d:e5:c8:08:25:5d:c9:78:3d:
         70:09:42:27:85:82:7f:5c:22:32:30:94:21:47:3f:09:bf:c4:
         d2:1a:98:1b:f0:5d:3d:51:12:da:9f:1c:a7:44:d5:54:bc:5e:
         04:69:72:cc:cf:4f:f3:b1:d7:49:db:4c:0e:d1:42:8f:ad:ba:
         90:92:5b:7b:9d:13:8f:58:46:3d:a4:2d:9d:a2:9d:6d:4b:e5:
         e4:d6:4c:61:a9:e1:78:33:5c:3d:78:0e:4f:0b:3d:fc:4a:6d:
         44:71:27:e1:1d:95:95:b6:9e:ba:0e:ca:72:01:fe:8e:f6:12:
         ad:71:15:82:54:68:23:ea:49:0c:30:05:ea:1e:68:cc:c0:7c:
         63:04:8e:1b:fa:79:96:95:1b:a0:0d:af:f7:85:7d:09:49:24:
         2e:8f:9e:ff
-----BEGIN CERTIFICATE-----
MIIEuDCCA6CgAwIBAgIBZDANBgkqhkiG9w0BAQUFADCBlDELMAkGA1UEBhMCVVMx
EDAOBgNVBAgMB01vbnRhbmExEDAOBgNVBAcMB0JvemVtYW4xETAPBgNVBAoMCFNh
d3Rvb3RoMRMwEQYDVQQLDApDb25zdWx0aW5nMRgwFgYDVQQDDA93d3cud29sZnNz
bC5jb20xHzAdBgkqhkiG9w0BCQEWEGluZm9Ad29sZnNzbC5jb20wHhcNMTgwNDEz
MTUyMzEwWhcNMjEwMTA3MTUyMzEwWjCBmDELMAkGA1UEBhMCVVMxEzARBgNVBAgM
Cldhc2hpbmd0b24xEDAOBgNVBAcMB1NlYXR0bGUxFTATBgNVBAoMDHdvbGZTU0wg
SW5jLjEUMBIGA1UECwwLRW5naW5lZXJpbmcxFDASBgNVBAMMC1NlcnZlciAwIENB
MR8wHQYJKoZIhvcNAQkBFhBpbmZvQHdvbGZzc2wuY29tMIIBIjANBgkqhkiG9w0B
AQEFAAOCAQ8AMIIBCgKCAQEAwJUI4VdB8nFtt9JFQScBZcZFrvK8JDC4lc4vTtb2
HIi8fJ/7qGd//lycUXX3isoH5zUvj+G9e8AvfKtkqBf8yl17uuAh5XIuby6G2JVz
2qwbU7lfP9cZDSVP4WNjUYsLZD+tQ7ilHFw0s64AoGPF9n8LWWh4c6aMGKkCba/D
GQEuuBDjxsxAtGmjRjNph27Euxem8+jdrXO8ey8htf1mUQy9VLPhbV8cvCNz0QkD
iRTSELlkwyrQoZZKvOHUGlvHoMDBY3gPRDcwMpaAMiOVoXe6E9KXc+JdJclqDcM5
YKS0sGlCQgnp2Ai8MyCzWCKnquvE4eZhg8XSlt/Z0E+t1wIDAQABo4IBDTCCAQkw
HQYDVR0OBBYEFLMRMsmSmITiyfjQO24DQsofDo48MIHJBgNVHSMEgcEwgb6AFCeO
ZxF0wyYdP+0zY7Ok2B0w5ejVoYGapIGXMIGUMQswCQYDVQQGEwJVUzEQMA4GA1UE
CAwHTW9udGFuYTEQMA4GA1UEBwwHQm96ZW1hbjERMA8GA1UECgwIU2F3dG9vdGgx
EzARBgNVBAsMCkNvbnN1bHRpbmcxGDAWBgNVBAMMD3d3dy53b2xmc3NsLmNvbTEf
MB0GCSqGSIb3DQEJARYQaW5mb0B3b2xmc3NsLmNvbYIJAIb/9Y4Q3rj7MA8GA1Ud
EwQIMAYBAf8CAQAwCwYDVR0PBAQDAgEGMA0GCSqGSIb3DQEBBQUAA4IBAQCMvcNx
V87dAjaM03Hs0SVle0hN4nfXYgC9D8lQS1DL0FqLCT8h0fUfLxREhw2Z+gxcHRLY
5sWgLMES7vo8/ekuI1i+YKKf51C+0dgvJ2eQih80E8qBB7vK3oZZu4BlT7f6XUJt
5cgIJV3JeD1wCUInhYJ/XCIyMJQhRz8Jv8TSGpgb8F09URLanxynRNVUvF4EaXLM
z0/zsddJ20wO0UKPrbqQklt7nROPWEY9pC2dop1tS+Xk1kxhqeF4M1w9eA5PCz38
Sm1EcSfhHZWVtp66DspyAf6O9hKtcRWCVGgj6kkMMAXqHmjMwHxjBI4b+nmWlRug
Da/3hX0JSSQuj57/
-----END CERTIFICATE-----
