Certificate:
    Data:
        Version: 3 (0x2)
        Serial Number: 104 (0x68)
    Signature Algorithm: sha1WithRSAEncryption
        Issuer: C=US, ST=Washington, L=Seattle, O=wolfSSL Inc., OU=Engineering, CN=Server 1-0 CA/emailAddress=info@wolfssl.com
        Validity
            Not Before: Apr 13 15:23:10 2018 GMT
            Not After : Jan  7 15:23:10 2021 GMT
        Subject: C=US, ST=Washington, L=Seattle, O=wolfSSL Inc., OU=Engineering, CN=Server 1-0/emailAddress=info@wolfssl.com
        Subject Public Key Info:
            Public Key Algorithm: rsaEncryption
                Public-Key: (2048 bit)
                Modulus:
                    00:c0:95:08:e1:57:41:f2:71:6d:b7:d2:45:41:27:
                    01:65:c6:45:ae:f2:bc:24:30:b8:95:ce:2f:4e:d6:
                    f6:1c:88:bc:7c:9f:fb:a8:67:7f:fe:5c:9c:51:75:
                    f7:8a:ca:07:e7:35:2f:8f:e1:bd:7b:c0:2f:7c:ab:
                    64:a8:17:fc:ca:5d:7b:ba:e0:21:e5:72:2e:6f:2e:
                    86:d8:95:73:da:ac:1b:53:b9:5f:3f:d7:19:0d:25:
                    4f:e1:63:63:51:8b:0b:64:3f:ad:43:b8:a5:1c:5c:
                    34:b3:ae:00:a0:63:c5:f6:7f:0b:59:68:78:73:a6:
                    8c:18:a9:02:6d:af:c3:19:01:2e:b8:10:e3:c6:cc:
                    40:b4:69:a3:46:33:69:87:6e:c4:bb:17:a6:f3:e8:
                    dd:ad:73:bc:7b:2f:21:b5:fd:66:51:0c:bd:54:b3:
                    e1:6d:5f:1c:bc:23:73:d1:09:03:89:14:d2:10:b9:
                    64:c3:2a:d0:a1:96:4a:bc:e1:d4:1a:5b:c7:a0:c0:
                    c1:63:78:0f:44:37:30:32:96:80:32:23:95:a1:77:
                    ba:13:d2:97:73:e2:5d:25:c9:6a:0d:c3:39:60:a4:
                    b4:b0:69:42:42:09:e9:d8:08:bc:33:20:b3:58:22:
                    a7:aa:eb:c4:e1:e6:61:83:c5:d2:96:df:d9:d0:4f:
                    ad:d7
                Exponent: 65537 (0x10001)
        X509v3 extensions:
            X509v3 Subject Key Identifier: 
                B3:11:32:C9:92:98:84:E2:C9:F8:D0:3B:6E:03:42:CA:1F:0E:8E:3C
            X509v3 Authority Key Identifier: 
                keyid:B3:11:32:C9:92:98:84:E2:C9:F8:D0:3B:6E:03:42:CA:1F:0E:8E:3C
                DirName:/C=US/ST=Washington/L=Seattle/O=wolfSSL Inc./OU=Engineering/CN=Server 1 CA/emailAddress=info@wolfssl.com
                serial:67

            X509v3 Basic Constraints: 
                CA:FALSE
    Signature Algorithm: sha1WithRSAEncryption
         88:e6:c7:a7:fc:33:31:f6:e3:1d:fe:92:c5:69:59:07:cb:70:
         7a:18:8a:cc:4c:10:7a:6b:f4:1a:32:78:1f:55:90:72:8d:e2:
         78:93:86:b6:9d:2f:3b:12:cc:f6:81:87:59:0b:54:61:b4:ea:
         da:7a:4c:27:82:49:89:78:41:f4:57:58:b2:17:fc:f1:35:c7:
         20:a9:51:84:21:e9:4a:68:5c:1b:1d:2c:1a:b3:47:93:27:59:
         a4:e4:73:e8:b8:30:5b:b7:5f:1f:10:07:59:0c:bd:d4:a6:e1:
         7c:d6:91:23:4e:b9:fd:85:22:4c:06:f3:08:58:18:48:85:db:
         46:40:b1:d7:9f:13:b5:aa:34:a5:b9:38:ff:b7:08:1a:5e:e3:
         76:80:16:6c:b9:8e:57:51:dc:5e:a1:03:e6:e9:ee:ac:a2:d0:
         26:3d:ff:97:96:0b:66:06:9a:c9:26:4a:c1:a3:02:f5:47:d5:
         87:d9:ea:a8:af:21:70:77:f8:9b:15:ec:c0:ee:fd:d4:16:b7:
         8a:4d:c0:8f:25:2d:6b:dd:dd:6f:4c:7f:b5:6c:59:b7:a4:7c:
         e9:52:a9:bc:79:8a:62:7c:ab:a1:ec:0b:fa:5b:6e:f8:db:11:
         72:a1:e9:c6:4a:83:82:64:ea:4e:13:44:d4:04:17:c3:ee:8d:
         ea:4b:9b:69
-----BEGIN CERTIFICATE-----
MIIEpDCCA4ygAwIBAgIBaDANBgkqhkiG9w0BAQUFADCBmjELMAkGA1UEBhMCVVMx
EzARBgNVBAgMCldhc2hpbmd0b24xEDAOBgNVBAcMB1NlYXR0bGUxFTATBgNVBAoM
DHdvbGZTU0wgSW5jLjEUMBIGA1UECwwLRW5naW5lZXJpbmcxFjAUBgNVBAMMDVNl
cnZlciAxLTAgQ0ExHzAdBgkqhkiG9w0BCQEWEGluZm9Ad29sZnNzbC5jb20wHhcN
MTgwNDEzMTUyMzEwWhcNMjEwMTA3MTUyMzEwWjCBlzELMAkGA1UEBhMCVVMxEzAR
BgNVBAgMCldhc2hpbmd0b24xEDAOBgNVBAcMB1NlYXR0bGUxFTATBgNVBAoMDHdv
bGZTU0wgSW5jLjEUMBIGA1UECwwLRW5naW5lZXJpbmcxEzARBgNVBAMMClNlcnZl
ciAxLTAxHzAdBgkqhkiG9w0BCQEWEGluZm9Ad29sZnNzbC5jb20wggEiMA0GCSqG
SIb3DQEBAQUAA4IBDwAwggEKAoIBAQDAlQjhV0HycW230kVBJwFlxkWu8rwkMLiV
zi9O1vYciLx8n/uoZ3/+XJxRdfeKygfnNS+P4b17wC98q2SoF/zKXXu64CHlci5v
LobYlXParBtTuV8/1xkNJU/hY2NRiwtkP61DuKUcXDSzrgCgY8X2fwtZaHhzpowY
qQJtr8MZAS64EOPGzEC0aaNGM2mHbsS7F6bz6N2tc7x7LyG1/WZRDL1Us+FtXxy8
I3PRCQOJFNIQuWTDKtChlkq84dQaW8egwMFjeA9ENzAyloAyI5Whd7oT0pdz4l0l
yWoNwzlgpLSwaUJCCenYCLwzILNYIqeq68Th5mGDxdKW39nQT63XAgMBAAGjgfUw
gfIwHQYDVR0OBBYEFLMRMsmSmITiyfjQO24DQsofDo48MIHFBgNVHSMEgb0wgbqA
FLMRMsmSmITiyfjQO24DQsofDo48oYGepIGbMIGYMQswCQYDVQQGEwJVUzETMBEG
A1UECAwKV2FzaGluZ3RvbjEQMA4GA1UEBwwHU2VhdHRsZTEVMBMGA1UECgwMd29s
ZlNTTCBJbmMuMRQwEgYDVQQLDAtFbmdpbmVlcmluZzEUMBIGA1UEAwwLU2VydmVy
IDEgQ0ExHzAdBgkqhkiG9w0BCQEWEGluZm9Ad29sZnNzbC5jb22CAWcwCQYDVR0T
BAIwADANBgkqhkiG9w0BAQUFAAOCAQEAiObHp/wzMfbjHf6SxWlZB8twehiKzEwQ
emv0GjJ4H1WQco3ieJOGtp0vOxLM9oGHWQtUYbTq2npMJ4JJiXhB9FdYshf88TXH
IKlRhCHpSmhcGx0sGrNHkydZpORz6LgwW7dfHxAHWQy91KbhfNaRI065/YUiTAbz
CFgYSIXbRkCx158Ttao0pbk4/7cIGl7jdoAWbLmOV1HcXqED5unurKLQJj3/l5YL
ZgaaySZKwaMC9UfVh9nqqK8hcHf4mxXswO791Ba3ik3AjyUta93db0x/tWxZt6R8
6VKpvHmKYnyroewL+ltu+NsRcqHpxkqDgmTqThNE1AQXw+6N6kubaQ==
-----END CERTIFICATE-----
