Certificate:
    Data:
        Version: 3 (0x2)
        Serial Number: 111 (0x6f)
    Signature Algorithm: sha1WithRSAEncryption
        Issuer: C=US, ST=Washington, L=Seattle, O=wolfSSL Inc., OU=Engineering, CN=Server 0-1 CA/emailAddress=info@wolfssl.com
        Validity
            Not Before: Apr 13 15:23:10 2018 GMT
            Not After : Jan  7 15:23:10 2021 GMT
        Subject: C=US, ST=Washington, L=Seattle, O=wolfSSL Inc., OU=Engineering, CN=Server 0-1/emailAddress=info@wolfssl.com
        Subject Public Key Info:
            Public Key Algorithm: rsaEncryption
                Public-Key: (2048 bit)
                Modulus:
                    00:c0:95:08:e1:57:41:f2:71:6d:b7:d2:45:41:27:
                    01:65:c6:45:ae:f2:bc:24:30:b8:95:ce:2f:4e:d6:
                    f6:1c:88:bc:7c:9f:fb:a8:67:7f:fe:5c:9c:51:75:
                    f7:8a:ca:07:e7:35:2f:8f:e1:bd:7b:c0:2f:7c:ab:
                    64:a8:17:fc:ca:5d:7b:ba:e0:21:e5:72:2e:6f:2e:
                    86:d8:95:73:da:ac:1b:53:b9:5f:3f:d7:19:0d:25:
                    4f:e1:63:63:51:8b:0b:64:3f:ad:43:b8:a5:1c:5c:
                    34:b3:ae:00:a0:63:c5:f6:7f:0b:59:68:78:73:a6:
                    8c:18:a9:02:6d:af:c3:19:01:2e:b8:10:e3:c6:cc:
                    40:b4:69:a3:46:33:69:87:6e:c4:bb:17:a6:f3:e8:
                    dd:ad:73:bc:7b:2f:21:b5:fd:66:51:0c:bd:54:b3:
                    e1:6d:5f:1c:bc:23:73:d1:09:03:89:14:d2:10:b9:
                    64:c3:2a:d0:a1:96:4a:bc:e1:d4:1a:5b:c7:a0:c0:
                    c1:63:78:0f:44:37:30:32:96:80:32:23:95:a1:77:
                    ba:13:d2:97:73:e2:5d:25:c9:6a:0d:c3:39:60:a4:
                    b4:b0:69:42:42:09:e9:d8:08:bc:33:20:b3:58:22:
                    a7:aa:eb:c4:e1:e6:61:83:c5:d2:96:df:d9:d0:4f:
                    ad:d7
                Exponent: 65537 (0x10001)
        X509v3 extensions:
            X509v3 Subject Key Identifier: 
                B3:11:32:C9:92:98:84:E2:C9:F8:D0:3B:6E:03:42:CA:1F:0E:8E:3C
            X509v3 Authority Key Identifier: 
                keyid:B3:11:32:C9:92:98:84:E2:C9:F8:D0:3B:6E:03:42:CA:1F:0E:8E:3C
                DirName:/C=US/ST=Washington/L=Seattle/O=wolfSSL Inc./OU=Engineering/CN=Server 0 CA/emailAddress=info@wolfssl.com
                serial:6E

            X509v3 Basic Constraints: 
                CA:FALSE
    Signature Algorithm: sha1WithRSAEncryption
         84:51:4f:e0:a5:4a:bc:2f:6d:e2:aa:13:6a:30:c0:f9:61:3d:
         59:9a:7a:42:9d:c6:c5:c1:79:3a:f8:83:8a:6e:0d:47:b9:b0:
         9b:49:e8:77:d9:e4:b0:6a:24:93:c8:32:52:e9:a5:8b:6f:17:
         d4:5a:d3:b8:aa:1e:0a:50:15:a9:69:3c:3c:63:14:1f:ce:ed:
         cd:58:3e:68:2e:1e:6f:f0:a8:ab:6d:68:60:9d:8c:3f:95:be:
         ee:65:b9:e7:25:1a:f3:d2:6b:8f:70:d1:9f:5d:a7:2f:0d:b2:
         a4:0b:a0:d2:4a:3d:4e:9b:e3:e5:db:5c:d3:ba:08:41:07:aa:
         c4:b7:d7:f9:fe:a4:2d:69:94:4a:b7:e9:fa:18:52:90:01:53:
         57:08:a2:25:85:92:f7:f2:35:fd:05:c2:ce:e3:e5:18:b8:34:
         b6:80:6e:a5:e6:06:4f:92:a5:ea:56:7e:00:ff:5b:5d:17:90:
         83:bb:10:ac:11:f4:49:d0:81:f5:f3:ce:f8:f3:46:c1:fc:53:
         38:eb:0b:46:4c:1b:ec:df:ee:74:c0:3a:66:f1:a4:02:f6:51:
         5d:72:bf:6b:68:7b:2c:11:7d:08:4c:70:dd:93:cc:b4:b9:6a:
         aa:29:de:79:b9:93:6d:c4:52:8a:b7:c5:e9:a3:43:11:59:48:
         51:b0:9c:ce
-----BEGIN CERTIFICATE-----
MIIEpDCCA4ygAwIBAgIBbzANBgkqhkiG9w0BAQUFADCBmjELMAkGA1UEBhMCVVMx
EzARBgNVBAgMCldhc2hpbmd0b24xEDAOBgNVBAcMB1NlYXR0bGUxFTATBgNVBAoM
DHdvbGZTU0wgSW5jLjEUMBIGA1UECwwLRW5naW5lZXJpbmcxFjAUBgNVBAMMDVNl
cnZlciAwLTEgQ0ExHzAdBgkqhkiG9w0BCQEWEGluZm9Ad29sZnNzbC5jb20wHhcN
MTgwNDEzMTUyMzEwWhcNMjEwMTA3MTUyMzEwWjCBlzELMAkGA1UEBhMCVVMxEzAR
BgNVBAgMCldhc2hpbmd0b24xEDAOBgNVBAcMB1NlYXR0bGUxFTATBgNVBAoMDHdv
bGZTU0wgSW5jLjEUMBIGA1UECwwLRW5naW5lZXJpbmcxEzARBgNVBAMMClNlcnZl
ciAwLTExHzAdBgkqhkiG9w0BCQEWEGluZm9Ad29sZnNzbC5jb20wggEiMA0GCSqG
SIb3DQEBAQUAA4IBDwAwggEKAoIBAQDAlQjhV0HycW230kVBJwFlxkWu8rwkMLiV
zi9O1vYciLx8n/uoZ3/+XJxRdfeKygfnNS+P4b17wC98q2SoF/zKXXu64CHlci5v
LobYlXParBtTuV8/1xkNJU/hY2NRiwtkP61DuKUcXDSzrgCgY8X2fwtZaHhzpowY
qQJtr8MZAS64EOPGzEC0aaNGM2mHbsS7F6bz6N2tc7x7LyG1/WZRDL1Us+FtXxy8
I3PRCQOJFNIQuWTDKtChlkq84dQaW8egwMFjeA9ENzAyloAyI5Whd7oT0pdz4l0l
yWoNwzlgpLSwaUJCCenYCLwzILNYIqeq68Th5mGDxdKW39nQT63XAgMBAAGjgfUw
gfIwHQYDVR0OBBYEFLMRMsmSmITiyfjQO24DQsofDo48MIHFBgNVHSMEgb0wgbqA
FLMRMsmSmITiyfjQO24DQsofDo48oYGepIGbMIGYMQswCQYDVQQGEwJVUzETMBEG
A1UECAwKV2FzaGluZ3RvbjEQMA4GA1UEBwwHU2VhdHRsZTEVMBMGA1UECgwMd29s
ZlNTTCBJbmMuMRQwEgYDVQQLDAtFbmdpbmVlcmluZzEUMBIGA1UEAwwLU2VydmVy
IDAgQ0ExHzAdBgkqhkiG9w0BCQEWEGluZm9Ad29sZnNzbC5jb22CAW4wCQYDVR0T
BAIwADANBgkqhkiG9w0BAQUFAAOCAQEAhFFP4KVKvC9t4qoTajDA+WE9WZp6Qp3G
xcF5OviDim4NR7mwm0nod9nksGokk8gyUumli28X1FrTuKoeClAVqWk8PGMUH87t
zVg+aC4eb/Coq21oYJ2MP5W+7mW55yUa89Jrj3DRn12nLw2ypAug0ko9Tpvj5dtc
07oIQQeqxLfX+f6kLWmUSrfp+hhSkAFTVwiiJYWS9/I1/QXCzuPlGLg0toBupeYG
T5Kl6lZ+AP9bXReQg7sQrBH0SdCB9fPO+PNGwfxTOOsLRkwb7N/udMA6ZvGkAvZR
XXK/a2h7LBF9CExw3ZPMtLlqqineebmTbcRSirfF6aNDEVlIUbCczg==
-----END CERTIFICATE-----
