Certificate:
    Data:
        Version: 3 (0x2)
        Serial Number: 105 (0x69)
    Signature Algorithm: sha1WithRSAEncryption
        Issuer: C=US, ST=Washington, L=Seattle, O=wolfSSL Inc., OU=Engineering, CN=Server 1 CA/emailAddress=info@wolfssl.com
        Validity
            Not Before: Apr 13 15:23:10 2018 GMT
            Not After : Jan  7 15:23:10 2021 GMT
        Subject: C=US, ST=Washington, L=Seattle, O=wolfSSL Inc., OU=Engineering, CN=Server 1/emailAddress=info@wolfssl.com
        Subject Public Key Info:
            Public Key Algorithm: rsaEncryption
                Public-Key: (2048 bit)
                Modulus:
                    00:c0:95:08:e1:57:41:f2:71:6d:b7:d2:45:41:27:
                    01:65:c6:45:ae:f2:bc:24:30:b8:95:ce:2f:4e:d6:
                    f6:1c:88:bc:7c:9f:fb:a8:67:7f:fe:5c:9c:51:75:
                    f7:8a:ca:07:e7:35:2f:8f:e1:bd:7b:c0:2f:7c:ab:
                    64:a8:17:fc:ca:5d:7b:ba:e0:21:e5:72:2e:6f:2e:
                    86:d8:95:73:da:ac:1b:53:b9:5f:3f:d7:19:0d:25:
                    4f:e1:63:63:51:8b:0b:64:3f:ad:43:b8:a5:1c:5c:
                    34:b3:ae:00:a0:63:c5:f6:7f:0b:59:68:78:73:a6:
                    8c:18:a9:02:6d:af:c3:19:01:2e:b8:10:e3:c6:cc:
                    40:b4:69:a3:46:33:69:87:6e:c4:bb:17:a6:f3:e8:
                    dd:ad:73:bc:7b:2f:21:b5:fd:66:51:0c:bd:54:b3:
                    e1:6d:5f:1c:bc:23:73:d1:09:03:89:14:d2:10:b9:
                    64:c3:2a:d0:a1:96:4a:bc:e1:d4:1a:5b:c7:a0:c0:
                    c1:63:78:0f:44:37:30:32:96:80:32:23:95:a1:77:
                    ba:13:d2:97:73:e2:5d:25:c9:6a:0d:c3:39:60:a4:
                    b4:b0:69:42:42:09:e9:d8:08:bc:33:20:b3:58:22:
                    a7:aa:eb:c4:e1:e6:61:83:c5:d2:96:df:d9:d0:4f:
                    ad:d7
                Exponent: 65537 (0x10001)
        X509v3 extensions:
            X509v3 Subject Key Identifier: 
                B3:11:32:C9:92:98:84:E2:C9:F8:D0:3B:6E:03:42:CA:1F:0E:8E:3C
            X509v3 Authority Key Identifier: 
                keyid:B3:11:32:C9:92:98:84:E2:C9:F8:D0:3B:6E:03:42:CA:1F:0E:8E:3C
                DirName:/C=US/ST=Montana/L=Bozeman/O=Sawtooth/OU=Consulting/CN=www.wolfssl.com/emailAddress=info@wolfssl.com
                serial:66

            X509v3 Basic Constraints: 
                CA:FALSE
    Signature Algorithm: sha1WithRSAEncryption
         0a:13:4d:88:d8:79:0d:79:f7:44:0d:81:c8:5d:c4:ae:86:b5:
         a3:ed:58:20:83:f4:6c:15:bc:1f:fc:fb:de:c5:88:1f:41:19:
         0b:a9:5f:21:39:87:33:0f:fe:e2:3c:e4:b3:94:9e:eb:0b:6f:
         40:c0:e2:c3:bd:2d:04:c4:ca:67:32:3d:44:89:60:de:b8:df:
         1d:07:4a:f6:50:94:2d:9e:57:f7:21:89:66:af:1c:fc:67:d0:
         14:59:46:12:bd:6e:cb:ea:cd:30:2d:f4:4c:9f:57:64:33:96:
         71:4b:71:cc:3a:da:40:46:03:88:4c:3e:b1:86:fd:48:af:61:
         42:f0:05:78:2a:f8:10:ec:11:f5:32:95:f6:83:d4:fc:d2:d3:
         0c:33:a6:22:62:2f:f1:4b:b6:ec:85:69:8c:19:16:9e:65:06:
         4d:71:2b:e1:36:25:a6:86:29:52:92:28:f9:5e:d3:b3:e4:fa:
         69:8f:d6:ee:39:6f:66:57:89:fa:9d:e5:05:d6:fe:53:0a:1d:
         18:aa:05:27:da:11:3d:a2:55:cb:31:f9:8d:78:07:56:db:a4:
         46:a2:07:e6:92:7b:8c:b9:65:7b:5c:05:29:aa:18:3e:a3:a2:
         ff:4e:84:52:d7:06:72:eb:6c:ee:cc:93:88:77:85:2f:f0:99:
         65:32:58:b4
-----BEGIN CERTIFICATE-----
MIIEnDCCA4SgAwIBAgIBaTANBgkqhkiG9w0BAQUFADCBmDELMAkGA1UEBhMCVVMx
EzARBgNVBAgMCldhc2hpbmd0b24xEDAOBgNVBAcMB1NlYXR0bGUxFTATBgNVBAoM
DHdvbGZTU0wgSW5jLjEUMBIGA1UECwwLRW5naW5lZXJpbmcxFDASBgNVBAMMC1Nl
cnZlciAxIENBMR8wHQYJKoZIhvcNAQkBFhBpbmZvQHdvbGZzc2wuY29tMB4XDTE4
MDQxMzE1MjMxMFoXDTIxMDEwNzE1MjMxMFowgZUxCzAJBgNVBAYTAlVTMRMwEQYD
VQQIDApXYXNoaW5ndG9uMRAwDgYDVQQHDAdTZWF0dGxlMRUwEwYDVQQKDAx3b2xm
U1NMIEluYy4xFDASBgNVBAsMC0VuZ2luZWVyaW5nMREwDwYDVQQDDAhTZXJ2ZXIg
MTEfMB0GCSqGSIb3DQEJARYQaW5mb0B3b2xmc3NsLmNvbTCCASIwDQYJKoZIhvcN
AQEBBQADggEPADCCAQoCggEBAMCVCOFXQfJxbbfSRUEnAWXGRa7yvCQwuJXOL07W
9hyIvHyf+6hnf/5cnFF194rKB+c1L4/hvXvAL3yrZKgX/Mpde7rgIeVyLm8uhtiV
c9qsG1O5Xz/XGQ0lT+FjY1GLC2Q/rUO4pRxcNLOuAKBjxfZ/C1loeHOmjBipAm2v
wxkBLrgQ48bMQLRpo0YzaYduxLsXpvPo3a1zvHsvIbX9ZlEMvVSz4W1fHLwjc9EJ
A4kU0hC5ZMMq0KGWSrzh1Bpbx6DAwWN4D0Q3MDKWgDIjlaF3uhPSl3PiXSXJag3D
OWCktLBpQkIJ6dgIvDMgs1gip6rrxOHmYYPF0pbf2dBPrdcCAwEAAaOB8TCB7jAd
BgNVHQ4EFgQUsxEyyZKYhOLJ+NA7bgNCyh8OjjwwgcEGA1UdIwSBuTCBtoAUsxEy
yZKYhOLJ+NA7bgNCyh8OjjyhgZqkgZcwgZQxCzAJBgNVBAYTAlVTMRAwDgYDVQQI
DAdNb250YW5hMRAwDgYDVQQHDAdCb3plbWFuMREwDwYDVQQKDAhTYXd0b290aDET
MBEGA1UECwwKQ29uc3VsdGluZzEYMBYGA1UEAwwPd3d3LndvbGZzc2wuY29tMR8w
HQYJKoZIhvcNAQkBFhBpbmZvQHdvbGZzc2wuY29tggFmMAkGA1UdEwQCMAAwDQYJ
KoZIhvcNAQEFBQADggEBAAoTTYjYeQ1590QNgchdxK6GtaPtWCCD9GwVvB/8+97F
iB9BGQupXyE5hzMP/uI85LOUnusLb0DA4sO9LQTEymcyPUSJYN643x0HSvZQlC2e
V/chiWavHPxn0BRZRhK9bsvqzTAt9EyfV2QzlnFLccw62kBGA4hMPrGG/UivYULw
BXgq+BDsEfUylfaD1PzS0wwzpiJiL/FLtuyFaYwZFp5lBk1xK+E2JaaGKVKSKPle
07Pk+mmP1u45b2ZXifqd5QXW/lMKHRiqBSfaET2iVcsx+Y14B1bbpEaiB+aSe4y5
ZXtcBSmqGD6jov9OhFLXBnLrbO7Mk4h3hS/wmWUyWLQ=
-----END CERTIFICATE-----
