Certificate:
    Data:
        Version: 3 (0x2)
        Serial Number: 103 (0x67)
    Signature Algorithm: sha1WithRSAEncryption
        Issuer: C=US, ST=Washington, L=Seattle, O=wolfSSL Inc., OU=Engineering, CN=Server 1 CA/emailAddress=info@wolfssl.com
        Validity
            Not Before: Apr 13 15:23:10 2018 GMT
            Not After : Jan  7 15:23:10 2021 GMT
        Subject: C=US, ST=Washington, L=Seattle, O=wolfSSL Inc., OU=Engineering, CN=Server 1-0 CA/emailAddress=info@wolfssl.com
        Subject Public Key Info:
            Public Key Algorithm: rsaEncryption
                Public-Key: (2048 bit)
                Modulus:
                    00:c0:95:08:e1:57:41:f2:71:6d:b7:d2:45:41:27:
                    01:65:c6:45:ae:f2:bc:24:30:b8:95:ce:2f:4e:d6:
                    f6:1c:88:bc:7c:9f:fb:a8:67:7f:fe:5c:9c:51:75:
                    f7:8a:ca:07:e7:35:2f:8f:e1:bd:7b:c0:2f:7c:ab:
                    64:a8:17:fc:ca:5d:7b:ba:e0:21:e5:72:2e:6f:2e:
                    86:d8:95:73:da:ac:1b:53:b9:5f:3f:d7:19:0d:25:
                    4f:e1:63:63:51:8b:0b:64:3f:ad:43:b8:a5:1c:5c:
                    34:b3:ae:00:a0:63:c5:f6:7f:0b:59:68:78:73:a6:
                    8c:18:a9:02:6d:af:c3:19:01:2e:b8:10:e3:c6:cc:
                    40:b4:69:a3:46:33:69:87:6e:c4:bb:17:a6:f3:e8:
                    dd:ad:73:bc:7b:2f:21:b5:fd:66:51:0c:bd:54:b3:
                    e1:6d:5f:1c:bc:23:73:d1:09:03:89:14:d2:10:b9:
                    64:c3:2a:d0:a1:96:4a:bc:e1:d4:1a:5b:c7:a0:c0:
                    c1:63:78:0f:44:37:30:32:96:80:32:23:95:a1:77:
                    ba:13:d2:97:73:e2:5d:25:c9:6a:0d:c3:39:60:a4:
                    b4:b0:69:42:42:09:e9:d8:08:bc:33:20:b3:58:22:
                    a7:aa:eb:c4:e1:e6:61:83:c5:d2:96:df:d9:d0:4f:
                    ad:d7
                Exponent: 65537 (0x10001)
        X509v3 extensions:
            X509v3 Subject Key Identifier: 
                B3:11:32:C9:92:98:84:E2:C9:F8:D0:3B:6E:03:42:CA:1F:0E:8E:3C
            X509v3 Authority Key Identifier: 
                keyid:B3:11:32:C9:92:98:84:E2:C9:F8:D0:3B:6E:03:42:CA:1F:0E:8E:3C
                DirName:/C=US/ST=Montana/L=Bozeman/O=Sawtooth/OU=Consulting/CN=www.wolfssl.com/emailAddress=info@wolfssl.com
                serial:66

            X509v3 Basic Constraints: 
                CA:TRUE, pathlen:0
            X509v3 Key Usage: 
                Certificate Sign, CRL Sign
    Signature Algorithm: sha1WithRSAEncryption
         2b:e5:fc:8a:56:f9:f4:37:84:c8:9a:b4:9d:46:33:24:9d:03:
         59:a2:c7:dd:31:75:31:ac:bf:f2:78:15:7d:31:82:dd:f4:d1:
         e8:f8:01:ac:02:cb:b6:32:5f:18:a5:20:37:1e:5d:3f:29:f6:
         8a:4b:16:c3:64:5e:98:6d:09:3b:6f:24:fe:58:c0:12:1f:86:
         18:0e:4d:e8:d9:bd:4d:44:e6:58:0d:69:fb:52:4d:b5:da:38:
         6d:c0:59:70:f5:5a:6b:51:98:f8:94:bd:d6:14:72:1f:38:fd:
         63:53:c6:f6:eb:f5:f2:c0:ce:b3:fc:35:6e:7a:78:32:28:dd:
         90:65:a1:03:02:69:2c:c9:04:22:70:c4:a8:44:8e:88:99:1c:
         3d:fb:21:a3:b0:d5:f1:29:d0:b8:44:6b:e5:34:bb:74:49:f2:
         29:10:e2:74:98:d5:11:68:a0:c1:b1:15:ae:cc:5f:d9:bb:83:
         78:7f:d2:3f:aa:c0:fc:a3:36:24:bf:b2:ab:94:7f:86:79:94:
         23:dc:8d:4d:83:fa:9d:00:ed:14:15:c7:2c:1d:e2:05:6f:2e:
         ba:f9:af:9c:6a:ef:05:0c:64:2d:f8:0a:61:7b:2d:67:3e:f1:
         fb:2b:e3:09:47:98:2e:a5:68:64:7a:f8:67:5a:56:b8:68:42:
         90:8d:3b:cb
-----BEGIN CERTIFICATE-----
MIIEtjCCA56gAwIBAgIBZzANBgkqhkiG9w0BAQUFADCBmDELMAkGA1UEBhMCVVMx
EzARBgNVBAgMCldhc2hpbmd0b24xEDAOBgNVBAcMB1NlYXR0bGUxFTATBgNVBAoM
DHdvbGZTU0wgSW5jLjEUMBIGA1UECwwLRW5naW5lZXJpbmcxFDASBgNVBAMMC1Nl
cnZlciAxIENBMR8wHQYJKoZIhvcNAQkBFhBpbmZvQHdvbGZzc2wuY29tMB4XDTE4
MDQxMzE1MjMxMFoXDTIxMDEwNzE1MjMxMFowgZoxCzAJBgNVBAYTAlVTMRMwEQYD
VQQIDApXYXNoaW5ndG9uMRAwDgYDVQQHDAdTZWF0dGxlMRUwEwYDVQQKDAx3b2xm
U1NMIEluYy4xFDASBgNVBAsMC0VuZ2luZWVyaW5nMRYwFAYDVQQDDA1TZXJ2ZXIg
MS0wIENBMR8wHQYJKoZIhvcNAQkBFhBpbmZvQHdvbGZzc2wuY29tMIIBIjANBgkq
hkiG9w0BAQEFAAOCAQ8AMIIBCgKCAQEAwJUI4VdB8nFtt9JFQScBZcZFrvK8JDC4
lc4vTtb2HIi8fJ/7qGd//lycUXX3isoH5zUvj+G9e8AvfKtkqBf8yl17uuAh5XIu
by6G2JVz2qwbU7lfP9cZDSVP4WNjUYsLZD+tQ7ilHFw0s64AoGPF9n8LWWh4c6aM
GKkCba/DGQEuuBDjxsxAtGmjRjNph27Euxem8+jdrXO8ey8htf1mUQy9VLPhbV8c
vCNz0QkDiRTSELlkwyrQoZZKvOHUGlvHoMDBY3gPRDcwMpaAMiOVoXe6E9KXc+Jd
JclqDcM5YKS0sGlCQgnp2Ai8MyCzWCKnquvE4eZhg8XSlt/Z0E+t1wIDAQABo4IB
BTCCAQEwHQYDVR0OBBYEFLMRMsmSmITiyfjQO24DQsofDo48MIHBBgNVHSMEgbkw
gbaAFLMRMsmSmITiyfjQO24DQsofDo48oYGapIGXMIGUMQswCQYDVQQGEwJVUzEQ
MA4GA1UECAwHTW9udGFuYTEQMA4GA1UEBwwHQm96ZW1hbjERMA8GA1UECgwIU2F3
dG9vdGgxEzARBgNVBAsMCkNvbnN1bHRpbmcxGDAWBgNVBAMMD3d3dy53b2xmc3Ns
LmNvbTEfMB0GCSqGSIb3DQEJARYQaW5mb0B3b2xmc3NsLmNvbYIBZjAPBgNVHRME
CDAGAQH/AgEAMAsGA1UdDwQEAwIBBjANBgkqhkiG9w0BAQUFAAOCAQEAK+X8ilb5
9DeEyJq0nUYzJJ0DWaLH3TF1May/8ngVfTGC3fTR6PgBrALLtjJfGKUgNx5dPyn2
iksWw2RemG0JO28k/ljAEh+GGA5N6Nm9TUTmWA1p+1JNtdo4bcBZcPVaa1GY+JS9
1hRyHzj9Y1PG9uv18sDOs/w1bnp4MijdkGWhAwJpLMkEInDEqESOiJkcPfsho7DV
8SnQuERr5TS7dEnyKRDidJjVEWigwbEVrsxf2buDeH/SP6rA/KM2JL+yq5R/hnmU
I9yNTYP6nQDtFBXHLB3iBW8uuvmvnGrvBQxkLfgKYXstZz7x+yvjCUeYLqVoZHr4
Z1pWuGhCkI07yw==
-----END CERTIFICATE-----
