Certificate:
    Data:
        Version: 3 (0x2)
        Serial Number: 15650401360786530715 (0xd931651e45f8a19b)
    Signature Algorithm: sha1WithRSAEncryption
        Issuer: C=US, ST=Montana, L=Bozeman, O=Engineering, CN=localhost
        Validity
            Not Before: May  3 16:02:13 2018 GMT
            Not After : Jan 27 16:02:13 2021 GMT
        Subject: C=US, ST=Montana, L=Bozeman, O=Engineering, CN=localhost
        Subject Public Key Info:
            Public Key Algorithm: rsaEncryption
                Public-Key: (2048 bit)
                Modulus:
                    00:c1:58:e2:3d:b0:7e:c3:52:8b:b3:94:08:0e:2c:
                    98:15:40:4c:ab:1f:0f:67:c3:17:88:12:a9:b1:7d:
                    4d:a4:65:97:03:f7:90:d6:07:31:31:a5:3d:26:6e:
                    5b:84:47:cc:a8:8f:a1:37:ff:f2:d8:e7:c6:83:74:
                    04:82:fb:1f:e0:c5:32:d6:b8:23:48:80:5f:46:58:
                    83:9f:3f:64:da:5a:3f:40:1d:3e:a6:21:e9:25:3f:
                    6c:fd:a8:99:b7:31:de:d4:4f:9d:b1:38:b9:33:d3:
                    06:e5:67:34:a3:72:a1:18:eb:57:35:30:61:fa:c4:
                    0b:5f:61:f5:99:82:69:31:7a:3e:1a:00:a7:7b:8d:
                    1d:4b:01:70:92:23:1f:84:3b:65:af:bc:0f:1c:e5:
                    f8:92:a3:34:20:7e:d5:d2:33:fe:78:df:b5:55:4b:
                    0b:b8:74:7e:29:b5:13:68:bb:fe:a7:5e:2e:f8:71:
                    8c:ce:e3:ef:d4:9e:1e:e3:ff:88:20:c2:eb:de:80:
                    d7:44:a9:e4:60:0a:d0:12:a5:06:a5:44:df:b1:ae:
                    a8:21:41:a8:fb:f3:ab:7f:90:19:2a:1f:a2:f4:28:
                    ac:f3:72:c7:cb:8b:8a:04:e9:d2:57:9f:87:bb:48:
                    55:a0:cd:b4:5a:ca:9e:72:6b:b8:da:97:9c:7f:e9:
                    4f:b9
                Exponent: 65537 (0x10001)
        X509v3 extensions:
            X509v3 Subject Alternative Name: 
                DNS:localhost
    Signature Algorithm: sha1WithRSAEncryption
         ae:76:ea:5e:33:2c:cf:16:c8:ec:a2:27:2a:19:b9:22:bb:69:
         b4:96:35:f7:25:1c:dd:8b:fb:c4:a8:32:17:89:73:a0:bc:23:
         a3:49:d4:fd:1a:d7:fc:bf:87:5d:42:12:4b:20:20:74:47:7e:
         7c:97:89:c1:f1:a3:82:3a:58:0b:b4:05:0b:c1:02:da:a6:dc:
         ca:6c:60:58:fe:83:1c:fc:ed:c7:bc:96:df:b2:af:31:f5:28:
         45:2d:d5:c0:5a:42:95:c3:64:c5:46:5c:cd:8e:d6:7b:fd:9c:
         f5:75:44:cc:d6:7e:d8:96:55:5c:00:9f:1f:ac:f1:0a:07:29:
         0c:ba:ab:7d:1f:ac:8d:40:55:86:e4:35:1d:11:89:10:8b:c2:
         67:ff:99:32:66:f3:5d:4a:c3:37:5e:37:32:40:7b:29:50:25:
         e5:c1:d8:df:7b:64:3e:f7:c4:1e:01:88:fe:24:f6:0c:ea:f7:
         72:df:1e:72:0c:9b:64:c3:6b:ec:ce:99:b1:75:61:f2:ac:d5:
         6f:7b:7d:06:7b:6c:a8:6c:ac:46:37:dd:af:e6:cb:8f:70:d7:
         57:e2:38:d9:e6:9a:93:da:53:06:e6:39:c5:79:6a:0a:ac:49:
         da:04:a1:60:2f:5f:96:ef:ca:6c:34:62:6c:ac:25:1c:d5:e0:
         f7:8e:7c:df
-----BEGIN CERTIFICATE-----
MIIDUzCCAjugAwIBAgIJANkxZR5F+KGbMA0GCSqGSIb3DQEBBQUAMFsxCzAJBgNV
BAYTAlVTMRAwDgYDVQQIDAdNb250YW5hMRAwDgYDVQQHDAdCb3plbWFuMRQwEgYD
VQQKDAtFbmdpbmVlcmluZzESMBAGA1UEAwwJbG9jYWxob3N0MB4XDTE4MDUwMzE2
MDIxM1oXDTIxMDEyNzE2MDIxM1owWzELMAkGA1UEBhMCVVMxEDAOBgNVBAgMB01v
bnRhbmExEDAOBgNVBAcMB0JvemVtYW4xFDASBgNVBAoMC0VuZ2luZWVyaW5nMRIw
EAYDVQQDDAlsb2NhbGhvc3QwggEiMA0GCSqGSIb3DQEBAQUAA4IBDwAwggEKAoIB
AQDBWOI9sH7DUouzlAgOLJgVQEyrHw9nwxeIEqmxfU2kZZcD95DWBzExpT0mbluE
R8yoj6E3//LY58aDdASC+x/gxTLWuCNIgF9GWIOfP2TaWj9AHT6mIeklP2z9qJm3
Md7UT52xOLkz0wblZzSjcqEY61c1MGH6xAtfYfWZgmkxej4aAKd7jR1LAXCSIx+E
O2WvvA8c5fiSozQgftXSM/5437VVSwu4dH4ptRNou/6nXi74cYzO4+/Unh7j/4gg
wuvegNdEqeRgCtASpQalRN+xrqghQaj786t/kBkqH6L0KKzzcsfLi4oE6dJXn4e7
SFWgzbRayp5ya7jal5x/6U+5AgMBAAGjGjAYMBYGA1UdEQQPMA2CC2xvY2FsaG9z
dABoMA0GCSqGSIb3DQEBBQUAA4IBAQCudupeMyzPFsjsoicqGbkiu2m0ljX3JRzd
i/vEqDIXiXOgvCOjSdT9Gtf8v4ddQhJLICB0R358l4nB8aOCOlgLtAULwQLaptzK
bGBY/oMc/O3HvJbfsq8x9ShFLdXAWkKVw2TFRlzNjtZ7/Zz1dUTM1n7YllVcAJ8f
rPEKBykMuqt9H6yNQFWG5DUdEYkQi8Jn/5kyZvNdSsM3XjcyQHspUCXlwdjfe2Q+
98QeAYj+JPYM6vdy3x5yDJtkw2vszpmxdWHyrNVve30Ge2yobKxGN92v5suPcNdX
4jjZ5pqT2lMG5jnFeWoKrEnaBKFgL1+W78psNGJsrCUc1eD3jnzf
-----END CERTIFICATE-----
