Certificate:
    Data:
        Version: 3 (0x2)
        Serial Number: 14443731963441436391 (0xc87271b1cfe1d6e7)
    Signature Algorithm: sha256WithRSAEncryption
        Issuer: C=US, ST=Montana, L=Bozeman, OU=Engineering, CN=DER:30:0d:82:0b:6c:6f:63:61:6c:68:6f:73:74:00:68/emailAddress=info@wolfssl.com
        Validity
            Not Before: Jun 12 23:10:47 2018 GMT
            Not After : Mar  8 23:10:47 2021 GMT
        Subject: C=US, ST=Montana, L=Bozeman, OU=Engineering, CN=DER:30:0d:82:0b:6c:6f:63:61:6c:68:6f:73:74:00:68/emailAddress=info@wolfssl.com
        Subject Public Key Info:
            Public Key Algorithm: rsaEncryption
                Public-Key: (2048 bit)
                Modulus:
                    00:c0:95:08:e1:57:41:f2:71:6d:b7:d2:45:41:27:
                    01:65:c6:45:ae:f2:bc:24:30:b8:95:ce:2f:4e:d6:
                    f6:1c:88:bc:7c:9f:fb:a8:67:7f:fe:5c:9c:51:75:
                    f7:8a:ca:07:e7:35:2f:8f:e1:bd:7b:c0:2f:7c:ab:
                    64:a8:17:fc:ca:5d:7b:ba:e0:21:e5:72:2e:6f:2e:
                    86:d8:95:73:da:ac:1b:53:b9:5f:3f:d7:19:0d:25:
                    4f:e1:63:63:51:8b:0b:64:3f:ad:43:b8:a5:1c:5c:
                    34:b3:ae:00:a0:63:c5:f6:7f:0b:59:68:78:73:a6:
                    8c:18:a9:02:6d:af:c3:19:01:2e:b8:10:e3:c6:cc:
                    40:b4:69:a3:46:33:69:87:6e:c4:bb:17:a6:f3:e8:
                    dd:ad:73:bc:7b:2f:21:b5:fd:66:51:0c:bd:54:b3:
                    e1:6d:5f:1c:bc:23:73:d1:09:03:89:14:d2:10:b9:
                    64:c3:2a:d0:a1:96:4a:bc:e1:d4:1a:5b:c7:a0:c0:
                    c1:63:78:0f:44:37:30:32:96:80:32:23:95:a1:77:
                    ba:13:d2:97:73:e2:5d:25:c9:6a:0d:c3:39:60:a4:
                    b4:b0:69:42:42:09:e9:d8:08:bc:33:20:b3:58:22:
                    a7:aa:eb:c4:e1:e6:61:83:c5:d2:96:df:d9:d0:4f:
                    ad:d7
                Exponent: 65537 (0x10001)
    Signature Algorithm: sha256WithRSAEncryption
         28:2d:4a:7a:b9:22:94:2a:92:90:d8:e8:2b:bc:c5:39:46:03:
         c3:16:97:a1:21:1c:8d:19:f9:d2:c5:9f:36:8c:d4:04:b0:69:
         cd:2f:28:3f:95:e9:3d:22:e1:b3:c0:f0:73:f3:b8:fa:cb:63:
         a4:7d:b9:3c:dc:fc:f1:7e:fd:b0:8b:c6:5e:f2:60:90:51:5a:
         94:92:e0:48:04:44:53:4f:73:e5:73:27:c5:54:94:ed:69:a4:
         8f:5c:62:0f:fa:3b:4f:c5:2b:d4:26:0d:3c:39:e1:c7:ce:d5:
         81:b6:c8:7f:63:e1:7a:de:0f:d2:ca:97:2b:7d:cc:09:53:69:
         2c:a4:d8:19:58:ad:eb:48:ce:c7:69:1b:63:57:26:5a:9b:5d:
         be:98:9d:58:b2:b3:c0:79:8b:bf:f4:39:f2:a1:5d:30:63:4a:
         66:15:1d:8f:a2:e4:83:b2:25:06:74:66:8f:32:b1:5d:a7:7f:
         6f:70:f6:4e:2a:10:33:6f:c2:a4:38:34:87:f6:3f:82:a7:a5:
         ab:fa:7d:43:38:f6:8d:bc:04:e1:b2:81:10:c7:6a:03:ed:0c:
         89:b9:06:b3:61:e4:c1:ca:9e:88:48:39:a6:41:e8:7f:f8:d7:
         7d:48:46:fb:9f:53:de:8c:be:6a:25:77:8c:48:bf:a4:7d:b0:
         96:dd:d0:86
-----BEGIN CERTIFICATE-----
MIIDyTCCArGgAwIBAgIJAMhycbHP4dbnMA0GCSqGSIb3DQEBCwUAMIGjMQswCQYD
VQQGEwJVUzEQMA4GA1UECAwHTW9udGFuYTEQMA4GA1UEBwwHQm96ZW1hbjEUMBIG
A1UECwwLRW5naW5lZXJpbmcxOTA3BgNVBAMMMERFUjozMDowZDo4MjowYjo2Yzo2
Zjo2Mzo2MTo2Yzo2ODo2Zjo3Mzo3NDowMDo2ODEfMB0GCSqGSIb3DQEJARYQaW5m
b0B3b2xmc3NsLmNvbTAeFw0xODA2MTIyMzEwNDdaFw0yMTAzMDgyMzEwNDdaMIGj
MQswCQYDVQQGEwJVUzEQMA4GA1UECAwHTW9udGFuYTEQMA4GA1UEBwwHQm96ZW1h
bjEUMBIGA1UECwwLRW5naW5lZXJpbmcxOTA3BgNVBAMMMERFUjozMDowZDo4Mjow
Yjo2Yzo2Zjo2Mzo2MTo2Yzo2ODo2Zjo3Mzo3NDowMDo2ODEfMB0GCSqGSIb3DQEJ
ARYQaW5mb0B3b2xmc3NsLmNvbTCCASIwDQYJKoZIhvcNAQEBBQADggEPADCCAQoC
ggEBAMCVCOFXQfJxbbfSRUEnAWXGRa7yvCQwuJXOL07W9hyIvHyf+6hnf/5cnFF1
94rKB+c1L4/hvXvAL3yrZKgX/Mpde7rgIeVyLm8uhtiVc9qsG1O5Xz/XGQ0lT+Fj
Y1GLC2Q/rUO4pRxcNLOuAKBjxfZ/C1loeHOmjBipAm2vwxkBLrgQ48bMQLRpo0Yz
aYduxLsXpvPo3a1zvHsvIbX9ZlEMvVSz4W1fHLwjc9EJA4kU0hC5ZMMq0KGWSrzh
1Bpbx6DAwWN4D0Q3MDKWgDIjlaF3uhPSl3PiXSXJag3DOWCktLBpQkIJ6dgIvDMg
s1gip6rrxOHmYYPF0pbf2dBPrdcCAwEAATANBgkqhkiG9w0BAQsFAAOCAQEAKC1K
erkilCqSkNjoK7zFOUYDwxaXoSEcjRn50sWfNozUBLBpzS8oP5XpPSLhs8Dwc/O4
+stjpH25PNz88X79sIvGXvJgkFFalJLgSAREU09z5XMnxVSU7Wmkj1xiD/o7T8Ur
1CYNPDnhx87VgbbIf2Phet4P0sqXK33MCVNpLKTYGVit60jOx2kbY1cmWptdvpid
WLKzwHmLv/Q58qFdMGNKZhUdj6Lkg7IlBnRmjzKxXad/b3D2TioQM2/CpDg0h/Y/
gqelq/p9Qzj2jbwE4bKBEMdqA+0MibkGs2HkwcqeiEg5pkHof/jXfUhG+59T3oy+
aiV3jEi/pH2wlt3Qhg==
-----END CERTIFICATE-----
