Certificate:
    Data:
        Version: 3 (0x2)
        Serial Number: 18173611275853114373 (0xfc35a32adf422c05)
    Signature Algorithm: sha256WithRSAEncryption
        Issuer: C=US, ST=Montana, L=Bozeman, OU=Engineering, CN=www.nomatch.com/emailAddress=info@wolfssl.com
        Validity
            Not Before: Jun 12 23:10:48 2018 GMT
            Not After : Mar  8 23:10:48 2021 GMT
        Subject: C=US, ST=Montana, L=Bozeman, OU=Engineering, CN=www.nomatch.com/emailAddress=info@wolfssl.com
        Subject Public Key Info:
            Public Key Algorithm: rsaEncryption
                Public-Key: (2048 bit)
                Modulus:
                    00:c0:95:08:e1:57:41:f2:71:6d:b7:d2:45:41:27:
                    01:65:c6:45:ae:f2:bc:24:30:b8:95:ce:2f:4e:d6:
                    f6:1c:88:bc:7c:9f:fb:a8:67:7f:fe:5c:9c:51:75:
                    f7:8a:ca:07:e7:35:2f:8f:e1:bd:7b:c0:2f:7c:ab:
                    64:a8:17:fc:ca:5d:7b:ba:e0:21:e5:72:2e:6f:2e:
                    86:d8:95:73:da:ac:1b:53:b9:5f:3f:d7:19:0d:25:
                    4f:e1:63:63:51:8b:0b:64:3f:ad:43:b8:a5:1c:5c:
                    34:b3:ae:00:a0:63:c5:f6:7f:0b:59:68:78:73:a6:
                    8c:18:a9:02:6d:af:c3:19:01:2e:b8:10:e3:c6:cc:
                    40:b4:69:a3:46:33:69:87:6e:c4:bb:17:a6:f3:e8:
                    dd:ad:73:bc:7b:2f:21:b5:fd:66:51:0c:bd:54:b3:
                    e1:6d:5f:1c:bc:23:73:d1:09:03:89:14:d2:10:b9:
                    64:c3:2a:d0:a1:96:4a:bc:e1:d4:1a:5b:c7:a0:c0:
                    c1:63:78:0f:44:37:30:32:96:80:32:23:95:a1:77:
                    ba:13:d2:97:73:e2:5d:25:c9:6a:0d:c3:39:60:a4:
                    b4:b0:69:42:42:09:e9:d8:08:bc:33:20:b3:58:22:
                    a7:aa:eb:c4:e1:e6:61:83:c5:d2:96:df:d9:d0:4f:
                    ad:d7
                Exponent: 65537 (0x10001)
        X509v3 extensions:
            X509v3 Subject Alternative Name: 
                DNS:www.nomatch.com
    Signature Algorithm: sha256WithRSAEncryption
         50:71:b9:85:03:6e:8b:65:4e:55:8e:36:c6:e6:41:9b:ff:06:
         23:e1:11:6f:a0:98:ab:45:da:31:77:f3:85:c7:3e:60:79:f6:
         1d:20:52:72:72:d4:e1:67:a7:53:9d:c2:3a:2e:ab:99:a8:3a:
         43:3f:77:bb:69:46:94:79:b4:7c:29:63:a0:ae:8d:8e:e3:e8:
         60:77:71:a2:c2:df:bd:d2:19:06:40:c0:7e:88:5c:9c:ec:f8:
         31:4d:d5:ac:19:a4:cc:08:49:69:47:02:19:50:64:12:01:bd:
         c0:57:62:f9:c7:b1:3b:b4:b2:2f:a3:0c:27:92:ba:56:0d:83:
         7e:fd:d7:7e:60:82:cd:39:06:70:4b:11:89:c9:1b:7d:a4:47:
         b3:fe:66:5a:4c:d7:99:32:44:e3:0a:fc:6c:18:7b:9e:0c:52:
         bc:73:67:a8:d8:b9:74:7c:fd:4e:c8:ba:93:6e:1d:79:51:ac:
         48:51:78:c6:63:bf:24:2b:25:a2:2f:ca:c2:4a:74:46:82:43:
         b9:0a:fb:13:07:29:16:a4:22:ae:f2:52:2d:7f:f7:9b:70:29:
         8a:2b:9f:3c:d7:07:bf:3d:41:83:02:05:90:39:85:be:f9:c4:
         63:fd:e9:6f:8f:ea:27:89:9a:8d:90:1f:8e:8d:46:ab:c9:c2:
         77:f8:d5:29
-----BEGIN CERTIFICATE-----
MIIDpzCCAo+gAwIBAgIJAPw1oyrfQiwFMA0GCSqGSIb3DQEBCwUAMIGCMQswCQYD
VQQGEwJVUzEQMA4GA1UECAwHTW9udGFuYTEQMA4GA1UEBwwHQm96ZW1hbjEUMBIG
A1UECwwLRW5naW5lZXJpbmcxGDAWBgNVBAMMD3d3dy5ub21hdGNoLmNvbTEfMB0G
CSqGSIb3DQEJARYQaW5mb0B3b2xmc3NsLmNvbTAeFw0xODA2MTIyMzEwNDhaFw0y
MTAzMDgyMzEwNDhaMIGCMQswCQYDVQQGEwJVUzEQMA4GA1UECAwHTW9udGFuYTEQ
MA4GA1UEBwwHQm96ZW1hbjEUMBIGA1UECwwLRW5naW5lZXJpbmcxGDAWBgNVBAMM
D3d3dy5ub21hdGNoLmNvbTEfMB0GCSqGSIb3DQEJARYQaW5mb0B3b2xmc3NsLmNv
bTCCASIwDQYJKoZIhvcNAQEBBQADggEPADCCAQoCggEBAMCVCOFXQfJxbbfSRUEn
AWXGRa7yvCQwuJXOL07W9hyIvHyf+6hnf/5cnFF194rKB+c1L4/hvXvAL3yrZKgX
/Mpde7rgIeVyLm8uhtiVc9qsG1O5Xz/XGQ0lT+FjY1GLC2Q/rUO4pRxcNLOuAKBj
xfZ/C1loeHOmjBipAm2vwxkBLrgQ48bMQLRpo0YzaYduxLsXpvPo3a1zvHsvIbX9
ZlEMvVSz4W1fHLwjc9EJA4kU0hC5ZMMq0KGWSrzh1Bpbx6DAwWN4D0Q3MDKWgDIj
laF3uhPSl3PiXSXJag3DOWCktLBpQkIJ6dgIvDMgs1gip6rrxOHmYYPF0pbf2dBP
rdcCAwEAAaMeMBwwGgYDVR0RBBMwEYIPd3d3Lm5vbWF0Y2guY29tMA0GCSqGSIb3
DQEBCwUAA4IBAQBQcbmFA26LZU5VjjbG5kGb/wYj4RFvoJirRdoxd/OFxz5gefYd
IFJyctThZ6dTncI6LquZqDpDP3e7aUaUebR8KWOgro2O4+hgd3Giwt+90hkGQMB+
iFyc7PgxTdWsGaTMCElpRwIZUGQSAb3AV2L5x7E7tLIvowwnkrpWDYN+/dd+YILN
OQZwSxGJyRt9pEez/mZaTNeZMkTjCvxsGHueDFK8c2eo2Ll0fP1OyLqTbh15UaxI
UXjGY78kKyWiL8rCSnRGgkO5CvsTBykWpCKu8lItf/ebcCmKK5881we/PUGDAgWQ
OYW++cRj/elvj+oniZqNkB+OjUarycJ3+NUp
-----END CERTIFICATE-----
