Certificate:
    Data:
        Version: 3 (0x2)
        Serial Number: 9494820020802705564 (0x83c46080d236589c)
    Signature Algorithm: sha256WithRSAEncryption
        Issuer: C=US, ST=Montana, L=Bozeman, OU=Engineering, CN=localhost/emailAddress=info@wolfssl.com
        Validity
            Not Before: Jun 13 16:02:51 2018 GMT
            Not After : Mar  9 16:02:51 2021 GMT
        Subject: C=US, ST=Montana, L=Bozeman, OU=Engineering, CN=localhost/emailAddress=info@wolfssl.com
        Subject Public Key Info:
            Public Key Algorithm: rsaEncryption
                Public-Key: (2048 bit)
                Modulus:
                    00:c0:95:08:e1:57:41:f2:71:6d:b7:d2:45:41:27:
                    01:65:c6:45:ae:f2:bc:24:30:b8:95:ce:2f:4e:d6:
                    f6:1c:88:bc:7c:9f:fb:a8:67:7f:fe:5c:9c:51:75:
                    f7:8a:ca:07:e7:35:2f:8f:e1:bd:7b:c0:2f:7c:ab:
                    64:a8:17:fc:ca:5d:7b:ba:e0:21:e5:72:2e:6f:2e:
                    86:d8:95:73:da:ac:1b:53:b9:5f:3f:d7:19:0d:25:
                    4f:e1:63:63:51:8b:0b:64:3f:ad:43:b8:a5:1c:5c:
                    34:b3:ae:00:a0:63:c5:f6:7f:0b:59:68:78:73:a6:
                    8c:18:a9:02:6d:af:c3:19:01:2e:b8:10:e3:c6:cc:
                    40:b4:69:a3:46:33:69:87:6e:c4:bb:17:a6:f3:e8:
                    dd:ad:73:bc:7b:2f:21:b5:fd:66:51:0c:bd:54:b3:
                    e1:6d:5f:1c:bc:23:73:d1:09:03:89:14:d2:10:b9:
                    64:c3:2a:d0:a1:96:4a:bc:e1:d4:1a:5b:c7:a0:c0:
                    c1:63:78:0f:44:37:30:32:96:80:32:23:95:a1:77:
                    ba:13:d2:97:73:e2:5d:25:c9:6a:0d:c3:39:60:a4:
                    b4:b0:69:42:42:09:e9:d8:08:bc:33:20:b3:58:22:
                    a7:aa:eb:c4:e1:e6:61:83:c5:d2:96:df:d9:d0:4f:
                    ad:d7
                Exponent: 65537 (0x10001)
    Signature Algorithm: sha256WithRSAEncryption
         00:fe:cb:dd:9b:51:8c:57:e6:e8:8b:96:92:70:0b:c3:e8:15:
         c4:f1:fd:e6:39:c7:f8:d5:0d:8e:ae:f7:27:17:46:e3:fd:70:
         26:24:d3:61:a7:8b:7e:7b:97:f6:21:30:f4:24:f9:c3:22:76:
         a6:68:83:40:ce:9d:69:d7:e4:9e:e5:ff:cf:a3:3e:c0:52:a8:
         7e:93:7f:d5:5b:63:37:45:fd:ca:f4:8f:8e:2a:50:ac:80:ce:
         4e:2c:1a:3b:ec:ed:8f:ae:4f:09:54:9d:b1:3f:05:bc:cf:24:
         3f:f4:9a:1d:4d:dc:ba:33:b0:b4:7a:a6:54:38:de:dc:b4:f1:
         27:ce:6f:2c:d0:7e:62:8a:84:af:40:af:d2:2a:1f:40:fe:5e:
         14:9d:05:30:2b:4f:7b:95:86:2d:9b:a9:fb:00:eb:1b:a1:fd:
         0b:67:de:66:9d:e3:b8:3e:e7:8a:b1:7e:38:3f:0e:db:53:c5:
         5d:18:a7:66:49:8e:51:03:3c:6a:cb:fa:1a:ef:83:a7:7b:f2:
         23:f9:fb:7d:30:91:7d:c0:3a:63:b9:89:19:9c:bf:8d:f8:5d:
         4a:9b:a6:48:02:35:f0:19:ea:92:09:8a:78:7a:09:eb:8c:61:
         e7:6a:11:85:a9:a6:a6:fb:94:48:ff:86:4e:c1:13:49:13:a5:
         72:b6:25:c8
-----BEGIN CERTIFICATE-----
MIIDeTCCAmGgAwIBAgIJAIPEYIDSNlicMA0GCSqGSIb3DQEBCwUAMHwxCzAJBgNV
BAYTAlVTMRAwDgYDVQQIDAdNb250YW5hMRAwDgYDVQQHDAdCb3plbWFuMRQwEgYD
VQQLDAtFbmdpbmVlcmluZzESMBAGA1UEAwwJbG9jYWxob3N0MR8wHQYJKoZIhvcN
AQkBFhBpbmZvQHdvbGZzc2wuY29tMB4XDTE4MDYxMzE2MDI1MVoXDTIxMDMwOTE2
MDI1MVowfDELMAkGA1UEBhMCVVMxEDAOBgNVBAgMB01vbnRhbmExEDAOBgNVBAcM
B0JvemVtYW4xFDASBgNVBAsMC0VuZ2luZWVyaW5nMRIwEAYDVQQDDAlsb2NhbGhv
c3QxHzAdBgkqhkiG9w0BCQEWEGluZm9Ad29sZnNzbC5jb20wggEiMA0GCSqGSIb3
DQEBAQUAA4IBDwAwggEKAoIBAQDAlQjhV0HycW230kVBJwFlxkWu8rwkMLiVzi9O
1vYciLx8n/uoZ3/+XJxRdfeKygfnNS+P4b17wC98q2SoF/zKXXu64CHlci5vLobY
lXParBtTuV8/1xkNJU/hY2NRiwtkP61DuKUcXDSzrgCgY8X2fwtZaHhzpowYqQJt
r8MZAS64EOPGzEC0aaNGM2mHbsS7F6bz6N2tc7x7LyG1/WZRDL1Us+FtXxy8I3PR
CQOJFNIQuWTDKtChlkq84dQaW8egwMFjeA9ENzAyloAyI5Whd7oT0pdz4l0lyWoN
wzlgpLSwaUJCCenYCLwzILNYIqeq68Th5mGDxdKW39nQT63XAgMBAAEwDQYJKoZI
hvcNAQELBQADggEBAAD+y92bUYxX5uiLlpJwC8PoFcTx/eY5x/jVDY6u9ycXRuP9
cCYk02Gni357l/YhMPQk+cMidqZog0DOnWnX5J7l/8+jPsBSqH6Tf9VbYzdF/cr0
j44qUKyAzk4sGjvs7Y+uTwlUnbE/BbzPJD/0mh1N3LozsLR6plQ43ty08SfObyzQ
fmKKhK9Ar9IqH0D+XhSdBTArT3uVhi2bqfsA6xuh/Qtn3mad47g+54qxfjg/DttT
xV0Yp2ZJjlEDPGrL+hrvg6d78iP5+30wkX3AOmO5iRmcv434XUqbpkgCNfAZ6pIJ
inh6CeuMYedqEYWppqb7lEj/hk7BE0kTpXK2Jcg=
-----END CERTIFICATE-----
