Certificate:
    Data:
        Version: 3 (0x2)
        Serial Number: 10690824908453597701 (0x945d709ca0465205)
    Signature Algorithm: sha256WithRSAEncryption
        Issuer: C=US, ST=Montana, L=Bozeman, OU=Engineering, CN=www.nomatch.com/emailAddress=info@wolfssl.com
        Validity
            Not Before: Jun 12 23:10:48 2018 GMT
            Not After : Mar  8 23:10:48 2021 GMT
        Subject: C=US, ST=Montana, L=Bozeman, OU=Engineering, CN=www.nomatch.com/emailAddress=info@wolfssl.com
        Subject Public Key Info:
            Public Key Algorithm: rsaEncryption
                Public-Key: (2048 bit)
                Modulus:
                    00:c0:95:08:e1:57:41:f2:71:6d:b7:d2:45:41:27:
                    01:65:c6:45:ae:f2:bc:24:30:b8:95:ce:2f:4e:d6:
                    f6:1c:88:bc:7c:9f:fb:a8:67:7f:fe:5c:9c:51:75:
                    f7:8a:ca:07:e7:35:2f:8f:e1:bd:7b:c0:2f:7c:ab:
                    64:a8:17:fc:ca:5d:7b:ba:e0:21:e5:72:2e:6f:2e:
                    86:d8:95:73:da:ac:1b:53:b9:5f:3f:d7:19:0d:25:
                    4f:e1:63:63:51:8b:0b:64:3f:ad:43:b8:a5:1c:5c:
                    34:b3:ae:00:a0:63:c5:f6:7f:0b:59:68:78:73:a6:
                    8c:18:a9:02:6d:af:c3:19:01:2e:b8:10:e3:c6:cc:
                    40:b4:69:a3:46:33:69:87:6e:c4:bb:17:a6:f3:e8:
                    dd:ad:73:bc:7b:2f:21:b5:fd:66:51:0c:bd:54:b3:
                    e1:6d:5f:1c:bc:23:73:d1:09:03:89:14:d2:10:b9:
                    64:c3:2a:d0:a1:96:4a:bc:e1:d4:1a:5b:c7:a0:c0:
                    c1:63:78:0f:44:37:30:32:96:80:32:23:95:a1:77:
                    ba:13:d2:97:73:e2:5d:25:c9:6a:0d:c3:39:60:a4:
                    b4:b0:69:42:42:09:e9:d8:08:bc:33:20:b3:58:22:
                    a7:aa:eb:c4:e1:e6:61:83:c5:d2:96:df:d9:d0:4f:
                    ad:d7
                Exponent: 65537 (0x10001)
    Signature Algorithm: sha256WithRSAEncryption
         6b:4d:4f:75:40:7b:1c:c0:08:e7:ae:b1:e7:57:9e:c0:ee:ca:
         15:46:e9:e5:02:dd:fb:e1:f3:39:b9:b4:d3:b5:a4:cb:5b:16:
         4d:90:43:54:62:8d:d5:58:68:12:35:d7:73:ba:86:33:27:7e:
         e7:f4:4b:90:40:f3:e2:62:90:57:08:e0:a6:10:76:62:00:bd:
         60:29:dc:52:10:98:bb:81:4c:f7:f8:cf:46:64:66:fa:85:dd:
         e0:90:fb:27:3d:74:2f:fb:7c:29:fe:ae:a7:a6:8d:1e:41:d6:
         d6:02:90:28:51:fc:ce:87:bc:39:58:d7:94:5a:c6:6c:2c:3f:
         dc:99:14:ec:66:43:5f:cf:0b:47:1c:1e:9e:27:05:8b:8e:55:
         d8:c0:25:45:40:3b:93:4f:a2:d9:58:ef:c0:c1:57:4c:67:2f:
         33:84:01:d0:bc:0a:d0:95:44:ae:eb:f8:fd:68:d5:5a:33:b4:
         b3:cb:ad:1b:ce:ec:ae:04:b4:5d:0a:29:ad:2a:66:a5:cf:73:
         c3:bf:ce:ce:43:4d:01:ea:e8:45:23:e5:3f:21:22:2e:6e:9b:
         22:d0:e8:c9:e2:c9:2c:a5:6a:27:9d:7f:8a:17:ae:c7:3d:54:
         6b:bd:85:76:44:e6:16:1f:72:31:a0:75:b8:1f:89:a4:7e:c1:
         2d:d0:96:05
-----BEGIN CERTIFICATE-----
MIIDhzCCAm+gAwIBAgIJAJRdcJygRlIFMA0GCSqGSIb3DQEBCwUAMIGCMQswCQYD
VQQGEwJVUzEQMA4GA1UECAwHTW9udGFuYTEQMA4GA1UEBwwHQm96ZW1hbjEUMBIG
A1UECwwLRW5naW5lZXJpbmcxGDAWBgNVBAMMD3d3dy5ub21hdGNoLmNvbTEfMB0G
CSqGSIb3DQEJARYQaW5mb0B3b2xmc3NsLmNvbTAeFw0xODA2MTIyMzEwNDhaFw0y
MTAzMDgyMzEwNDhaMIGCMQswCQYDVQQGEwJVUzEQMA4GA1UECAwHTW9udGFuYTEQ
MA4GA1UEBwwHQm96ZW1hbjEUMBIGA1UECwwLRW5naW5lZXJpbmcxGDAWBgNVBAMM
D3d3dy5ub21hdGNoLmNvbTEfMB0GCSqGSIb3DQEJARYQaW5mb0B3b2xmc3NsLmNv
bTCCASIwDQYJKoZIhvcNAQEBBQADggEPADCCAQoCggEBAMCVCOFXQfJxbbfSRUEn
AWXGRa7yvCQwuJXOL07W9hyIvHyf+6hnf/5cnFF194rKB+c1L4/hvXvAL3yrZKgX
/Mpde7rgIeVyLm8uhtiVc9qsG1O5Xz/XGQ0lT+FjY1GLC2Q/rUO4pRxcNLOuAKBj
xfZ/C1loeHOmjBipAm2vwxkBLrgQ48bMQLRpo0YzaYduxLsXpvPo3a1zvHsvIbX9
ZlEMvVSz4W1fHLwjc9EJA4kU0hC5ZMMq0KGWSrzh1Bpbx6DAwWN4D0Q3MDKWgDIj
laF3uhPSl3PiXSXJag3DOWCktLBpQkIJ6dgIvDMgs1gip6rrxOHmYYPF0pbf2dBP
rdcCAwEAATANBgkqhkiG9w0BAQsFAAOCAQEAa01PdUB7HMAI566x51eewO7KFUbp
5QLd++HzObm007Wky1sWTZBDVGKN1VhoEjXXc7qGMyd+5/RLkEDz4mKQVwjgphB2
YgC9YCncUhCYu4FM9/jPRmRm+oXd4JD7Jz10L/t8Kf6up6aNHkHW1gKQKFH8zoe8
OVjXlFrGbCw/3JkU7GZDX88LRxwenicFi45V2MAlRUA7k0+i2VjvwMFXTGcvM4QB
0LwK0JVEruv4/WjVWjO0s8utG87srgS0XQoprSpmpc9zw7/OzkNNAeroRSPlPyEi
Lm6bItDoyeLJLKVqJ51/iheuxz1Ua72FdkTmFh9yMaB1uB+JpH7BLdCWBQ==
-----END CERTIFICATE-----
