Certificate:
    Data:
        Version: 3 (0x2)
        Serial Number: 14615220398693458350 (0xcad3b184922aa1ae)
    Signature Algorithm: sha256WithRSAEncryption
        Issuer: C=US, ST=Montana, L=Bozeman, OU=Engineering, CN=www.nomatch.com/emailAddress=info@wolfssl.com
        Validity
            Not Before: Jun 13 16:02:51 2018 GMT
            Not After : Mar  9 16:02:51 2021 GMT
        Subject: C=US, ST=Montana, L=Bozeman, OU=Engineering, CN=www.nomatch.com/emailAddress=info@wolfssl.com
        Subject Public Key Info:
            Public Key Algorithm: rsaEncryption
                Public-Key: (2048 bit)
                Modulus:
                    00:c0:95:08:e1:57:41:f2:71:6d:b7:d2:45:41:27:
                    01:65:c6:45:ae:f2:bc:24:30:b8:95:ce:2f:4e:d6:
                    f6:1c:88:bc:7c:9f:fb:a8:67:7f:fe:5c:9c:51:75:
                    f7:8a:ca:07:e7:35:2f:8f:e1:bd:7b:c0:2f:7c:ab:
                    64:a8:17:fc:ca:5d:7b:ba:e0:21:e5:72:2e:6f:2e:
                    86:d8:95:73:da:ac:1b:53:b9:5f:3f:d7:19:0d:25:
                    4f:e1:63:63:51:8b:0b:64:3f:ad:43:b8:a5:1c:5c:
                    34:b3:ae:00:a0:63:c5:f6:7f:0b:59:68:78:73:a6:
                    8c:18:a9:02:6d:af:c3:19:01:2e:b8:10:e3:c6:cc:
                    40:b4:69:a3:46:33:69:87:6e:c4:bb:17:a6:f3:e8:
                    dd:ad:73:bc:7b:2f:21:b5:fd:66:51:0c:bd:54:b3:
                    e1:6d:5f:1c:bc:23:73:d1:09:03:89:14:d2:10:b9:
                    64:c3:2a:d0:a1:96:4a:bc:e1:d4:1a:5b:c7:a0:c0:
                    c1:63:78:0f:44:37:30:32:96:80:32:23:95:a1:77:
                    ba:13:d2:97:73:e2:5d:25:c9:6a:0d:c3:39:60:a4:
                    b4:b0:69:42:42:09:e9:d8:08:bc:33:20:b3:58:22:
                    a7:aa:eb:c4:e1:e6:61:83:c5:d2:96:df:d9:d0:4f:
                    ad:d7
                Exponent: 65537 (0x10001)
        X509v3 extensions:
            X509v3 Subject Alternative Name: 
                DNS:localhost
    Signature Algorithm: sha256WithRSAEncryption
         5a:08:fc:f5:82:0b:a3:9b:8e:d0:95:92:46:df:a1:cd:8a:e5:
         c5:57:71:d4:6f:f4:d9:73:66:bc:7e:d9:66:a7:67:c7:29:1c:
         8d:d4:33:92:54:f3:7d:fd:5d:ef:b1:a8:07:a6:ee:df:99:f6:
         70:56:d2:f6:0b:15:0b:70:6f:da:bd:c4:37:ef:99:f9:b7:f3:
         59:70:12:41:f5:72:1c:61:1d:51:6d:22:c5:8c:8b:78:f8:77:
         00:11:e3:b2:a6:b7:e9:00:02:f0:e7:8f:e3:50:cb:20:8b:ff:
         f5:31:ce:7b:c1:ae:8f:a3:3c:60:81:da:34:6f:5f:d0:45:6d:
         bf:c2:69:54:5a:58:d3:57:29:5e:0f:85:d7:73:e1:db:b1:15:
         26:a8:66:72:51:d7:e7:b3:b8:87:b1:ab:6c:51:4b:7c:98:c7:
         c4:a8:ba:b0:3d:05:b5:95:2e:b5:a4:47:87:cd:86:3d:6c:45:
         54:46:63:c8:15:d6:06:39:a3:d6:b1:3f:f7:eb:a0:7c:c1:97:
         a9:7f:11:f7:ee:e5:6d:53:90:30:6c:39:0a:6b:0d:d6:8e:eb:
         38:9f:bc:09:c1:fc:67:28:4a:fd:59:60:df:d0:19:f9:35:52:
         4c:5e:85:98:c5:d4:e9:fe:17:04:22:f8:f1:dd:4b:8f:29:0e:
         b5:04:37:c1
-----BEGIN CERTIFICATE-----
MIIDoTCCAomgAwIBAgIJAMrTsYSSKqGuMA0GCSqGSIb3DQEBCwUAMIGCMQswCQYD
VQQGEwJVUzEQMA4GA1UECAwHTW9udGFuYTEQMA4GA1UEBwwHQm96ZW1hbjEUMBIG
A1UECwwLRW5naW5lZXJpbmcxGDAWBgNVBAMMD3d3dy5ub21hdGNoLmNvbTEfMB0G
CSqGSIb3DQEJARYQaW5mb0B3b2xmc3NsLmNvbTAeFw0xODA2MTMxNjAyNTFaFw0y
MTAzMDkxNjAyNTFaMIGCMQswCQYDVQQGEwJVUzEQMA4GA1UECAwHTW9udGFuYTEQ
MA4GA1UEBwwHQm96ZW1hbjEUMBIGA1UECwwLRW5naW5lZXJpbmcxGDAWBgNVBAMM
D3d3dy5ub21hdGNoLmNvbTEfMB0GCSqGSIb3DQEJARYQaW5mb0B3b2xmc3NsLmNv
bTCCASIwDQYJKoZIhvcNAQEBBQADggEPADCCAQoCggEBAMCVCOFXQfJxbbfSRUEn
AWXGRa7yvCQwuJXOL07W9hyIvHyf+6hnf/5cnFF194rKB+c1L4/hvXvAL3yrZKgX
/Mpde7rgIeVyLm8uhtiVc9qsG1O5Xz/XGQ0lT+FjY1GLC2Q/rUO4pRxcNLOuAKBj
xfZ/C1loeHOmjBipAm2vwxkBLrgQ48bMQLRpo0YzaYduxLsXpvPo3a1zvHsvIbX9
ZlEMvVSz4W1fHLwjc9EJA4kU0hC5ZMMq0KGWSrzh1Bpbx6DAwWN4D0Q3MDKWgDIj
laF3uhPSl3PiXSXJag3DOWCktLBpQkIJ6dgIvDMgs1gip6rrxOHmYYPF0pbf2dBP
rdcCAwEAAaMYMBYwFAYDVR0RBA0wC4IJbG9jYWxob3N0MA0GCSqGSIb3DQEBCwUA
A4IBAQBaCPz1ggujm47QlZJG36HNiuXFV3HUb/TZc2a8ftlmp2fHKRyN1DOSVPN9
/V3vsagHpu7fmfZwVtL2CxULcG/avcQ375n5t/NZcBJB9XIcYR1RbSLFjIt4+HcA
EeOyprfpAALw54/jUMsgi//1Mc57wa6Pozxggdo0b1/QRW2/wmlUWljTVyleD4XX
c+HbsRUmqGZyUdfns7iHsatsUUt8mMfEqLqwPQW1lS61pEeHzYY9bEVURmPIFdYG
OaPWsT/366B8wZepfxH37uVtU5AwbDkKaw3Wjus4n7wJwfxnKEr9WWDf0Bn5NVJM
XoWYxdTp/hcEIvjx3UuPKQ61BDfB
-----END CERTIFICATE-----
