Certificate:
    Data:
        Version: 3 (0x2)
        Serial Number: 17517463568368655517 (0xf31a884dce75dc9d)
    Signature Algorithm: sha256WithRSAEncryption
        Issuer: C=US, ST=Montana, L=Bozeman, OU=Engineering, CN=www.nomatch.com/emailAddress=info@wolfssl.com
        Validity
            Not Before: Jun 12 23:10:47 2018 GMT
            Not After : Mar  8 23:10:47 2021 GMT
        Subject: C=US, ST=Montana, L=Bozeman, OU=Engineering, CN=www.nomatch.com/emailAddress=info@wolfssl.com
        Subject Public Key Info:
            Public Key Algorithm: rsaEncryption
                Public-Key: (2048 bit)
                Modulus:
                    00:c0:95:08:e1:57:41:f2:71:6d:b7:d2:45:41:27:
                    01:65:c6:45:ae:f2:bc:24:30:b8:95:ce:2f:4e:d6:
                    f6:1c:88:bc:7c:9f:fb:a8:67:7f:fe:5c:9c:51:75:
                    f7:8a:ca:07:e7:35:2f:8f:e1:bd:7b:c0:2f:7c:ab:
                    64:a8:17:fc:ca:5d:7b:ba:e0:21:e5:72:2e:6f:2e:
                    86:d8:95:73:da:ac:1b:53:b9:5f:3f:d7:19:0d:25:
                    4f:e1:63:63:51:8b:0b:64:3f:ad:43:b8:a5:1c:5c:
                    34:b3:ae:00:a0:63:c5:f6:7f:0b:59:68:78:73:a6:
                    8c:18:a9:02:6d:af:c3:19:01:2e:b8:10:e3:c6:cc:
                    40:b4:69:a3:46:33:69:87:6e:c4:bb:17:a6:f3:e8:
                    dd:ad:73:bc:7b:2f:21:b5:fd:66:51:0c:bd:54:b3:
                    e1:6d:5f:1c:bc:23:73:d1:09:03:89:14:d2:10:b9:
                    64:c3:2a:d0:a1:96:4a:bc:e1:d4:1a:5b:c7:a0:c0:
                    c1:63:78:0f:44:37:30:32:96:80:32:23:95:a1:77:
                    ba:13:d2:97:73:e2:5d:25:c9:6a:0d:c3:39:60:a4:
                    b4:b0:69:42:42:09:e9:d8:08:bc:33:20:b3:58:22:
                    a7:aa:eb:c4:e1:e6:61:83:c5:d2:96:df:d9:d0:4f:
                    ad:d7
                Exponent: 65537 (0x10001)
        X509v3 extensions:
            X509v3 Subject Alternative Name: 
                DNS:*localhost
    Signature Algorithm: sha256WithRSAEncryption
         af:29:93:9d:e0:ec:8e:4d:aa:e6:12:90:45:af:56:32:5d:97:
         68:21:68:04:8f:82:80:ee:15:46:00:a2:9c:83:a0:f3:44:e3:
         95:d6:93:49:30:0e:86:00:fa:1f:8c:c0:63:a2:4b:f5:3b:f8:
         81:ce:f2:88:98:18:c3:bc:55:0c:48:69:e0:0b:64:44:1c:6d:
         35:5d:cd:75:59:c0:00:d4:19:c8:ba:f1:7f:c6:3c:00:f4:0f:
         fe:c2:fa:e8:5c:22:8d:0b:ea:7e:c7:80:d1:01:f3:bb:1a:58:
         e5:6e:2a:78:73:61:cb:30:cd:66:79:c3:42:b3:71:1c:4c:39:
         13:fd:c5:73:43:25:0d:3d:9b:49:ff:36:53:c7:6a:6f:20:0a:
         f5:b0:67:ac:d0:ff:a8:62:25:72:eb:f4:c1:66:30:31:4c:6c:
         bb:ab:55:08:36:fb:a3:8d:99:b0:e0:5c:88:09:ba:fe:5c:a0:
         94:db:97:bb:1f:01:7c:d8:50:7a:c8:a2:cf:23:d5:a9:84:d5:
         86:f9:02:96:1d:73:50:53:f8:f2:14:5b:2a:43:e1:b1:7b:b9:
         0e:a4:d9:88:dd:fe:71:41:b9:fd:bc:8e:9b:ad:4a:7e:e6:72:
         8b:a3:9b:66:37:84:ef:8e:c0:f6:95:ea:0f:80:e6:27:c0:8b:
         6e:91:a1:5a
-----BEGIN CERTIFICATE-----
MIIDojCCAoqgAwIBAgIJAPMaiE3OddydMA0GCSqGSIb3DQEBCwUAMIGCMQswCQYD
VQQGEwJVUzEQMA4GA1UECAwHTW9udGFuYTEQMA4GA1UEBwwHQm96ZW1hbjEUMBIG
A1UECwwLRW5naW5lZXJpbmcxGDAWBgNVBAMMD3d3dy5ub21hdGNoLmNvbTEfMB0G
CSqGSIb3DQEJARYQaW5mb0B3b2xmc3NsLmNvbTAeFw0xODA2MTIyMzEwNDdaFw0y
MTAzMDgyMzEwNDdaMIGCMQswCQYDVQQGEwJVUzEQMA4GA1UECAwHTW9udGFuYTEQ
MA4GA1UEBwwHQm96ZW1hbjEUMBIGA1UECwwLRW5naW5lZXJpbmcxGDAWBgNVBAMM
D3d3dy5ub21hdGNoLmNvbTEfMB0GCSqGSIb3DQEJARYQaW5mb0B3b2xmc3NsLmNv
bTCCASIwDQYJKoZIhvcNAQEBBQADggEPADCCAQoCggEBAMCVCOFXQfJxbbfSRUEn
AWXGRa7yvCQwuJXOL07W9hyIvHyf+6hnf/5cnFF194rKB+c1L4/hvXvAL3yrZKgX
/Mpde7rgIeVyLm8uhtiVc9qsG1O5Xz/XGQ0lT+FjY1GLC2Q/rUO4pRxcNLOuAKBj
xfZ/C1loeHOmjBipAm2vwxkBLrgQ48bMQLRpo0YzaYduxLsXpvPo3a1zvHsvIbX9
ZlEMvVSz4W1fHLwjc9EJA4kU0hC5ZMMq0KGWSrzh1Bpbx6DAwWN4D0Q3MDKWgDIj
laF3uhPSl3PiXSXJag3DOWCktLBpQkIJ6dgIvDMgs1gip6rrxOHmYYPF0pbf2dBP
rdcCAwEAAaMZMBcwFQYDVR0RBA4wDIIKKmxvY2FsaG9zdDANBgkqhkiG9w0BAQsF
AAOCAQEArymTneDsjk2q5hKQRa9WMl2XaCFoBI+CgO4VRgCinIOg80TjldaTSTAO
hgD6H4zAY6JL9Tv4gc7yiJgYw7xVDEhp4AtkRBxtNV3NdVnAANQZyLrxf8Y8APQP
/sL66FwijQvqfseA0QHzuxpY5W4qeHNhyzDNZnnDQrNxHEw5E/3Fc0MlDT2bSf82
U8dqbyAK9bBnrND/qGIlcuv0wWYwMUxsu6tVCDb7o42ZsOBciAm6/lyglNuXux8B
fNhQesiizyPVqYTVhvkClh1zUFP48hRbKkPhsXu5DqTZiN3+cUG5/byOm61KfuZy
i6ObZjeE747A9pXqD4DmJ8CLbpGhWg==
-----END CERTIFICATE-----
