Certificate:
    Data:
        Version: 3 (0x2)
        Serial Number: 18337557996975909176 (0xfe7c17d779df6938)
    Signature Algorithm: sha256WithRSAEncryption
        Issuer: C=US, ST=Montana, L=Bozeman, OU=Engineering, CN=www.nomatch.com/emailAddress=info@wolfssl.com
        Validity
            Not Before: Jun 12 23:10:48 2018 GMT
            Not After : Mar  8 23:10:48 2021 GMT
        Subject: C=US, ST=Montana, L=Bozeman, OU=Engineering, CN=www.nomatch.com/emailAddress=info@wolfssl.com
        Subject Public Key Info:
            Public Key Algorithm: rsaEncryption
                Public-Key: (2048 bit)
                Modulus:
                    00:c0:95:08:e1:57:41:f2:71:6d:b7:d2:45:41:27:
                    01:65:c6:45:ae:f2:bc:24:30:b8:95:ce:2f:4e:d6:
                    f6:1c:88:bc:7c:9f:fb:a8:67:7f:fe:5c:9c:51:75:
                    f7:8a:ca:07:e7:35:2f:8f:e1:bd:7b:c0:2f:7c:ab:
                    64:a8:17:fc:ca:5d:7b:ba:e0:21:e5:72:2e:6f:2e:
                    86:d8:95:73:da:ac:1b:53:b9:5f:3f:d7:19:0d:25:
                    4f:e1:63:63:51:8b:0b:64:3f:ad:43:b8:a5:1c:5c:
                    34:b3:ae:00:a0:63:c5:f6:7f:0b:59:68:78:73:a6:
                    8c:18:a9:02:6d:af:c3:19:01:2e:b8:10:e3:c6:cc:
                    40:b4:69:a3:46:33:69:87:6e:c4:bb:17:a6:f3:e8:
                    dd:ad:73:bc:7b:2f:21:b5:fd:66:51:0c:bd:54:b3:
                    e1:6d:5f:1c:bc:23:73:d1:09:03:89:14:d2:10:b9:
                    64:c3:2a:d0:a1:96:4a:bc:e1:d4:1a:5b:c7:a0:c0:
                    c1:63:78:0f:44:37:30:32:96:80:32:23:95:a1:77:
                    ba:13:d2:97:73:e2:5d:25:c9:6a:0d:c3:39:60:a4:
                    b4:b0:69:42:42:09:e9:d8:08:bc:33:20:b3:58:22:
                    a7:aa:eb:c4:e1:e6:61:83:c5:d2:96:df:d9:d0:4f:
                    ad:d7
                Exponent: 65537 (0x10001)
        X509v3 extensions:
            X509v3 Subject Alternative Name: 
                DNS:localhost
    Signature Algorithm: sha256WithRSAEncryption
         24:29:6d:72:5e:f9:49:79:0a:c1:d7:bb:c2:eb:b5:4b:f6:b6:
         05:e3:99:7a:df:68:ee:8d:94:66:f2:31:1f:9e:c2:86:77:5d:
         3b:75:86:9a:98:c1:8b:54:18:ab:9e:13:64:af:5b:b8:35:0c:
         d4:e6:dc:3e:03:d9:26:06:75:6b:13:a2:e9:3d:19:0a:65:d7:
         e2:1e:c2:67:fe:d7:f0:64:d8:ae:20:c3:81:1b:7f:a4:76:6e:
         4a:5c:ae:23:6e:85:32:25:3c:5e:54:7a:bf:49:5a:a2:11:53:
         a1:ce:d9:4b:19:ef:1c:ba:0e:f9:8e:c4:da:90:69:2f:ec:87:
         08:24:d7:6a:18:63:56:3e:a0:a6:22:f1:e0:10:bd:cc:68:50:
         99:e7:4f:51:27:00:da:36:2c:df:26:ab:41:5e:c3:fb:1b:bb:
         58:3f:8c:4a:b2:30:71:66:92:9e:05:a1:c9:90:f9:06:0a:79:
         33:f4:e3:b9:da:43:38:8f:82:15:1e:98:7a:b8:da:e7:a4:f6:
         08:bc:54:c6:7b:64:c2:56:a0:83:f9:c0:d5:60:ba:a3:df:8a:
         04:bc:65:d6:82:23:82:50:2f:a9:f6:bd:03:c6:3d:5e:00:b8:
         a0:c5:0f:eb:cf:59:67:d9:a3:e1:84:f9:d1:91:65:67:96:93:
         b6:0b:15:80
-----BEGIN CERTIFICATE-----
MIIDozCCAougAwIBAgIJAP58F9d532k4MA0GCSqGSIb3DQEBCwUAMIGCMQswCQYD
VQQGEwJVUzEQMA4GA1UECAwHTW9udGFuYTEQMA4GA1UEBwwHQm96ZW1hbjEUMBIG
A1UECwwLRW5naW5lZXJpbmcxGDAWBgNVBAMMD3d3dy5ub21hdGNoLmNvbTEfMB0G
CSqGSIb3DQEJARYQaW5mb0B3b2xmc3NsLmNvbTAeFw0xODA2MTIyMzEwNDhaFw0y
MTAzMDgyMzEwNDhaMIGCMQswCQYDVQQGEwJVUzEQMA4GA1UECAwHTW9udGFuYTEQ
MA4GA1UEBwwHQm96ZW1hbjEUMBIGA1UECwwLRW5naW5lZXJpbmcxGDAWBgNVBAMM
D3d3dy5ub21hdGNoLmNvbTEfMB0GCSqGSIb3DQEJARYQaW5mb0B3b2xmc3NsLmNv
bTCCASIwDQYJKoZIhvcNAQEBBQADggEPADCCAQoCggEBAMCVCOFXQfJxbbfSRUEn
AWXGRa7yvCQwuJXOL07W9hyIvHyf+6hnf/5cnFF194rKB+c1L4/hvXvAL3yrZKgX
/Mpde7rgIeVyLm8uhtiVc9qsG1O5Xz/XGQ0lT+FjY1GLC2Q/rUO4pRxcNLOuAKBj
xfZ/C1loeHOmjBipAm2vwxkBLrgQ48bMQLRpo0YzaYduxLsXpvPo3a1zvHsvIbX9
ZlEMvVSz4W1fHLwjc9EJA4kU0hC5ZMMq0KGWSrzh1Bpbx6DAwWN4D0Q3MDKWgDIj
laF3uhPSl3PiXSXJag3DOWCktLBpQkIJ6dgIvDMgs1gip6rrxOHmYYPF0pbf2dBP
rdcCAwEAAaMaMBgwFgYDVR0RBA8wDYILbG9jYWxob3N0AGgwDQYJKoZIhvcNAQEL
BQADggEBACQpbXJe+Ul5CsHXu8LrtUv2tgXjmXrfaO6NlGbyMR+ewoZ3XTt1hpqY
wYtUGKueE2SvW7g1DNTm3D4D2SYGdWsTouk9GQpl1+Iewmf+1/Bk2K4gw4Ebf6R2
bkpcriNuhTIlPF5Uer9JWqIRU6HO2UsZ7xy6DvmOxNqQaS/shwgk12oYY1Y+oKYi
8eAQvcxoUJnnT1EnANo2LN8mq0Few/sbu1g/jEqyMHFmkp4FocmQ+QYKeTP047na
QziPghUemHq42uek9gi8VMZ7ZMJWoIP5wNVguqPfigS8ZdaCI4JQL6n2vQPGPV4A
uKDFD+vPWWfZo+GE+dGRZWeWk7YLFYA=
-----END CERTIFICATE-----
