Certificate:
    Data:
        Version: 3 (0x2)
        Serial Number: 9769574718208722881 (0x87948071dd77c7c1)
    Signature Algorithm: sha256WithRSAEncryption
        Issuer: C=US, ST=Montana, L=Bozeman, OU=Engineering, CN=*localhost/emailAddress=info@wolfssl.com
        Validity
            Not Before: Jun 12 23:10:47 2018 GMT
            Not After : Mar  8 23:10:47 2021 GMT
        Subject: C=US, ST=Montana, L=Bozeman, OU=Engineering, CN=*localhost/emailAddress=info@wolfssl.com
        Subject Public Key Info:
            Public Key Algorithm: rsaEncryption
                Public-Key: (2048 bit)
                Modulus:
                    00:c0:95:08:e1:57:41:f2:71:6d:b7:d2:45:41:27:
                    01:65:c6:45:ae:f2:bc:24:30:b8:95:ce:2f:4e:d6:
                    f6:1c:88:bc:7c:9f:fb:a8:67:7f:fe:5c:9c:51:75:
                    f7:8a:ca:07:e7:35:2f:8f:e1:bd:7b:c0:2f:7c:ab:
                    64:a8:17:fc:ca:5d:7b:ba:e0:21:e5:72:2e:6f:2e:
                    86:d8:95:73:da:ac:1b:53:b9:5f:3f:d7:19:0d:25:
                    4f:e1:63:63:51:8b:0b:64:3f:ad:43:b8:a5:1c:5c:
                    34:b3:ae:00:a0:63:c5:f6:7f:0b:59:68:78:73:a6:
                    8c:18:a9:02:6d:af:c3:19:01:2e:b8:10:e3:c6:cc:
                    40:b4:69:a3:46:33:69:87:6e:c4:bb:17:a6:f3:e8:
                    dd:ad:73:bc:7b:2f:21:b5:fd:66:51:0c:bd:54:b3:
                    e1:6d:5f:1c:bc:23:73:d1:09:03:89:14:d2:10:b9:
                    64:c3:2a:d0:a1:96:4a:bc:e1:d4:1a:5b:c7:a0:c0:
                    c1:63:78:0f:44:37:30:32:96:80:32:23:95:a1:77:
                    ba:13:d2:97:73:e2:5d:25:c9:6a:0d:c3:39:60:a4:
                    b4:b0:69:42:42:09:e9:d8:08:bc:33:20:b3:58:22:
                    a7:aa:eb:c4:e1:e6:61:83:c5:d2:96:df:d9:d0:4f:
                    ad:d7
                Exponent: 65537 (0x10001)
    Signature Algorithm: sha256WithRSAEncryption
         34:ef:b2:dc:02:ec:6a:b5:58:e6:2b:13:18:30:57:e2:ef:22:
         0f:7c:7d:e3:00:77:cc:c4:d9:97:7f:e8:69:f4:87:22:1a:b8:
         a1:f2:17:18:94:23:cb:05:c2:90:86:c0:37:6a:90:da:00:70:
         dd:de:11:68:48:95:eb:4d:08:1e:73:1e:68:6e:1b:1e:1f:93:
         a1:fc:21:05:a7:99:1a:73:0a:88:37:60:f0:ba:8d:b6:b4:3f:
         c8:ed:2f:7b:56:9f:a5:c0:00:19:01:e8:e3:d1:06:fc:27:b7:
         5d:f5:53:f9:00:6e:d4:f2:31:1c:a3:cd:12:5f:72:38:09:8a:
         be:54:e3:6f:15:31:28:c3:c9:09:60:92:a9:c6:e1:66:33:c4:
         4d:24:f0:74:8e:87:29:63:67:6b:20:e0:5b:81:04:65:cc:0e:
         69:db:7f:e7:93:85:d5:04:26:bb:82:9e:69:61:f2:37:e4:6c:
         e2:87:e1:cd:37:40:69:a4:7f:f4:e3:39:d8:fb:2d:53:61:d7:
         4d:1d:39:e0:db:0a:10:7c:f3:4e:30:55:ef:3f:8a:8b:4a:47:
         99:f5:10:60:78:83:38:90:ab:33:59:45:d2:e6:62:df:3d:cd:
         a6:7c:39:91:9c:ae:96:36:b7:7f:c1:46:10:a8:c9:4e:be:66:
         6c:61:46:a2
-----BEGIN CERTIFICATE-----
MIIDezCCAmOgAwIBAgIJAIeUgHHdd8fBMA0GCSqGSIb3DQEBCwUAMH0xCzAJBgNV
BAYTAlVTMRAwDgYDVQQIDAdNb250YW5hMRAwDgYDVQQHDAdCb3plbWFuMRQwEgYD
VQQLDAtFbmdpbmVlcmluZzETMBEGA1UEAwwKKmxvY2FsaG9zdDEfMB0GCSqGSIb3
DQEJARYQaW5mb0B3b2xmc3NsLmNvbTAeFw0xODA2MTIyMzEwNDdaFw0yMTAzMDgy
MzEwNDdaMH0xCzAJBgNVBAYTAlVTMRAwDgYDVQQIDAdNb250YW5hMRAwDgYDVQQH
DAdCb3plbWFuMRQwEgYDVQQLDAtFbmdpbmVlcmluZzETMBEGA1UEAwwKKmxvY2Fs
aG9zdDEfMB0GCSqGSIb3DQEJARYQaW5mb0B3b2xmc3NsLmNvbTCCASIwDQYJKoZI
hvcNAQEBBQADggEPADCCAQoCggEBAMCVCOFXQfJxbbfSRUEnAWXGRa7yvCQwuJXO
L07W9hyIvHyf+6hnf/5cnFF194rKB+c1L4/hvXvAL3yrZKgX/Mpde7rgIeVyLm8u
htiVc9qsG1O5Xz/XGQ0lT+FjY1GLC2Q/rUO4pRxcNLOuAKBjxfZ/C1loeHOmjBip
Am2vwxkBLrgQ48bMQLRpo0YzaYduxLsXpvPo3a1zvHsvIbX9ZlEMvVSz4W1fHLwj
c9EJA4kU0hC5ZMMq0KGWSrzh1Bpbx6DAwWN4D0Q3MDKWgDIjlaF3uhPSl3PiXSXJ
ag3DOWCktLBpQkIJ6dgIvDMgs1gip6rrxOHmYYPF0pbf2dBPrdcCAwEAATANBgkq
hkiG9w0BAQsFAAOCAQEANO+y3ALsarVY5isTGDBX4u8iD3x94wB3zMTZl3/oafSH
Ihq4ofIXGJQjywXCkIbAN2qQ2gBw3d4RaEiV600IHnMeaG4bHh+TofwhBaeZGnMK
iDdg8LqNtrQ/yO0ve1afpcAAGQHo49EG/Ce3XfVT+QBu1PIxHKPNEl9yOAmKvlTj
bxUxKMPJCWCSqcbhZjPETSTwdI6HKWNnayDgW4EEZcwOadt/55OF1QQmu4KeaWHy
N+Rs4ofhzTdAaaR/9OM52PstU2HXTR054NsKEHzzTjBV7z+Ki0pHmfUQYHiDOJCr
M1lF0uZi3z3Npnw5kZyulja3f8FGEKjJTr5mbGFGog==
-----END CERTIFICATE-----
