Certificate:
    Data:
        Version: 3 (0x2)
        Serial Number:
            97:b4:bd:16:78:f8:47:f2
    Signature Algorithm: ecdsa-with-SHA256
        Issuer: C=US, ST=Washington, L=Seattle, O=wolfSSL, OU=Development, CN=www.wolfssl.com/emailAddress=info@wolfssl.com
        Validity
            Not Before: Oct 20 18:19:06 2017 GMT
            Not After : Oct 15 18:19:06 2037 GMT
        Subject: C=US, ST=Washington, L=Seattle, O=wolfSSL, OU=Development, CN=www.wolfssl.com/emailAddress=info@wolfssl.com
        Subject Public Key Info:
            Public Key Algorithm: id-ecPublicKey
                Public-Key: (256 bit)
                pub: 
                    04:02:d3:d9:6e:d6:01:8e:45:c8:b9:90:31:e5:c0:
                    4c:e3:9e:ad:29:38:98:ba:10:d6:e9:09:2a:80:a9:
                    2e:17:2a:b9:8a:bf:33:83:46:e3:95:0b:e4:77:40:
                    b5:3b:43:45:33:0f:61:53:7c:37:44:c1:cb:fc:80:
                    ca:e8:43:ea:a7
                ASN1 OID: prime256v1
                NIST CURVE: P-256
        X509v3 extensions:
            X509v3 Subject Key Identifier: 
                56:8E:9A:C3:F0:42:DE:18:B9:45:55:6E:F9:93:CF:EA:C3:F3:A5:21
            X509v3 Authority Key Identifier: 
                keyid:56:8E:9A:C3:F0:42:DE:18:B9:45:55:6E:F9:93:CF:EA:C3:F3:A5:21

            X509v3 Basic Constraints: critical
                CA:TRUE
            X509v3 Key Usage: critical
                Digital Signature, Certificate Sign, CRL Sign
    Signature Algorithm: ecdsa-with-SHA256
         30:45:02:20:32:26:81:e4:15:ec:e3:aa:d3:e5:b8:2a:ca:a3:
         06:a7:04:97:d8:43:7f:d4:94:47:f8:18:0d:93:52:23:8b:08:
         02:21:00:e1:9e:34:d0:92:ee:56:0d:23:38:4a:20:bc:cf:11:
         c3:33:77:96:81:56:2b:ca:c4:d5:c6:65:5d:36:73:2f:ba
-----BEGIN CERTIFICATE-----
MIICijCCAjCgAwIBAgIJAJe0vRZ4+EfyMAoGCCqGSM49BAMCMIGXMQswCQYDVQQG
EwJVUzETMBEGA1UECAwKV2FzaGluZ3RvbjEQMA4GA1UEBwwHU2VhdHRsZTEQMA4G
A1UECgwHd29sZlNTTDEUMBIGA1UECwwLRGV2ZWxvcG1lbnQxGDAWBgNVBAMMD3d3
dy53b2xmc3NsLmNvbTEfMB0GCSqGSIb3DQEJARYQaW5mb0B3b2xmc3NsLmNvbTAe
Fw0xNzEwMjAxODE5MDZaFw0zNzEwMTUxODE5MDZaMIGXMQswCQYDVQQGEwJVUzET
MBEGA1UECAwKV2FzaGluZ3RvbjEQMA4GA1UEBwwHU2VhdHRsZTEQMA4GA1UECgwH
d29sZlNTTDEUMBIGA1UECwwLRGV2ZWxvcG1lbnQxGDAWBgNVBAMMD3d3dy53b2xm
c3NsLmNvbTEfMB0GCSqGSIb3DQEJARYQaW5mb0B3b2xmc3NsLmNvbTBZMBMGByqG
SM49AgEGCCqGSM49AwEHA0IABALT2W7WAY5FyLmQMeXATOOerSk4mLoQ1ukJKoCp
LhcquYq/M4NG45UL5HdAtTtDRTMPYVN8N0TBy/yAyuhD6qejYzBhMB0GA1UdDgQW
BBRWjprD8ELeGLlFVW75k8/qw/OlITAfBgNVHSMEGDAWgBRWjprD8ELeGLlFVW75
k8/qw/OlITAPBgNVHRMBAf8EBTADAQH/MA4GA1UdDwEB/wQEAwIBhjAKBggqhkjO
PQQDAgNIADBFAiAyJoHkFezjqtPluCrKowanBJfYQ3/UlEf4GA2TUiOLCAIhAOGe
NNCS7lYNIzhKILzPEcMzd5aBVivKxNXGZV02cy+6
-----END CERTIFICATE-----
