Certificate:
    Data:
        Version: 3 (0x2)
        Serial Number:
            f5:e1:8f:f1:4b:a6:83:8e
    Signature Algorithm: ecdsa-with-SHA384
        Issuer: C=US, ST=Washington, L=Seattle, O=wolfSSL, OU=Development, CN=www.wolfssl.com/emailAddress=info@wolfssl.com
        Validity
            Not Before: Oct 20 18:19:06 2017 GMT
            Not After : Oct 15 18:19:06 2037 GMT
        Subject: C=US, ST=Washington, L=Seattle, O=wolfSSL, OU=Development, CN=www.wolfssl.com/emailAddress=info@wolfssl.com
        Subject Public Key Info:
            Public Key Algorithm: id-ecPublicKey
                Public-Key: (384 bit)
                pub: 
                    04:ee:82:d4:39:9a:b1:27:82:f4:d7:ea:c6:bc:03:
                    1d:4d:83:61:f4:03:ae:7e:bd:d8:5a:a5:b9:f0:8e:
                    a2:a5:da:ce:87:3b:5a:ab:44:16:9c:f5:9f:62:dd:
                    f6:20:cd:9c:76:3c:40:b1:3f:97:17:df:59:f6:cd:
                    de:cd:46:35:c0:ed:5e:2e:48:b6:66:91:71:74:b7:
                    0c:3f:b9:9a:b7:83:bd:93:3f:5f:50:2d:70:3f:de:
                    35:25:e1:90:3b:86:e0
                ASN1 OID: secp384r1
                NIST CURVE: P-384
        X509v3 extensions:
            X509v3 Subject Key Identifier: 
                AB:E0:C3:26:4C:18:D4:72:BB:D2:84:8C:9C:0A:05:92:80:12:53:52
            X509v3 Authority Key Identifier: 
                keyid:AB:E0:C3:26:4C:18:D4:72:BB:D2:84:8C:9C:0A:05:92:80:12:53:52

            X509v3 Basic Constraints: critical
                CA:TRUE
            X509v3 Key Usage: critical
                Digital Signature, Certificate Sign, CRL Sign
    Signature Algorithm: ecdsa-with-SHA384
         30:65:02:30:17:dd:b9:a5:e0:ec:8a:03:8b:66:45:69:ad:5e:
         ad:32:bc:45:4c:89:85:3f:a1:dd:a4:74:4b:5d:08:65:1b:d8:
         07:00:49:5d:ef:10:fc:eb:8f:64:a8:62:99:88:20:59:02:31:
         00:94:40:64:29:86:d0:00:76:1c:98:23:9c:b7:9b:be:78:73:
         3a:88:be:52:00:3f:e3:81:36:d9:14:22:3d:9e:a2:8a:4a:56:
         9c:c4:3f:5f:88:2e:b1:a7:6c:4d:0e:cc:92
-----BEGIN CERTIFICATE-----
MIICxzCCAk2gAwIBAgIJAPXhj/FLpoOOMAoGCCqGSM49BAMDMIGXMQswCQYDVQQG
EwJVUzETMBEGA1UECAwKV2FzaGluZ3RvbjEQMA4GA1UEBwwHU2VhdHRsZTEQMA4G
A1UECgwHd29sZlNTTDEUMBIGA1UECwwLRGV2ZWxvcG1lbnQxGDAWBgNVBAMMD3d3
dy53b2xmc3NsLmNvbTEfMB0GCSqGSIb3DQEJARYQaW5mb0B3b2xmc3NsLmNvbTAe
Fw0xNzEwMjAxODE5MDZaFw0zNzEwMTUxODE5MDZaMIGXMQswCQYDVQQGEwJVUzET
MBEGA1UECAwKV2FzaGluZ3RvbjEQMA4GA1UEBwwHU2VhdHRsZTEQMA4GA1UECgwH
d29sZlNTTDEUMBIGA1UECwwLRGV2ZWxvcG1lbnQxGDAWBgNVBAMMD3d3dy53b2xm
c3NsLmNvbTEfMB0GCSqGSIb3DQEJARYQaW5mb0B3b2xmc3NsLmNvbTB2MBAGByqG
SM49AgEGBSuBBAAiA2IABO6C1DmasSeC9NfqxrwDHU2DYfQDrn692FqlufCOoqXa
zoc7WqtEFpz1n2Ld9iDNnHY8QLE/lxffWfbN3s1GNcDtXi5ItmaRcXS3DD+5mreD
vZM/X1AtcD/eNSXhkDuG4KNjMGEwHQYDVR0OBBYEFKvgwyZMGNRyu9KEjJwKBZKA
ElNSMB8GA1UdIwQYMBaAFKvgwyZMGNRyu9KEjJwKBZKAElNSMA8GA1UdEwEB/wQF
MAMBAf8wDgYDVR0PAQH/BAQDAgGGMAoGCCqGSM49BAMDA2gAMGUCMBfduaXg7IoD
i2ZFaa1erTK8RUyJhT+h3aR0S10IZRvYBwBJXe8Q/OuPZKhimYggWQIxAJRAZCmG
0AB2HJgjnLebvnhzOoi+UgA/44E22RQiPZ6iikpWnMQ/X4gusadsTQ7Mkg==
-----END CERTIFICATE-----
