Certificate:
    Data:
        Version: 3 (0x2)
        Serial Number:
            e7:72:a6:9e:13:1d:17:5c
    Signature Algorithm: ecdsa-with-SHA256
        Issuer: C=US, ST=Oregon, L=Salem, O=Client ECC, OU=Fast, CN=www.wolfssl.com/emailAddress=info@wolfssl.com
        Validity
            Not Before: Aug 11 20:07:38 2016 GMT
            Not After : May  8 20:07:38 2019 GMT
        Subject: C=US, ST=Oregon, L=Salem, O=Client ECC, OU=Fast, CN=www.wolfssl.com/emailAddress=info@wolfssl.com
        Subject Public Key Info:
            Public Key Algorithm: id-ecPublicKey
                Public-Key: (256 bit)
                pub: 
                    04:55:bf:f4:0f:44:50:9a:3d:ce:9b:b7:f0:c5:4d:
                    f5:70:7b:d4:ec:24:8e:19:80:ec:5a:4c:a2:24:03:
                    62:2c:9b:da:ef:a2:35:12:43:84:76:16:c6:56:95:
                    06:cc:01:a9:bd:f6:75:1a:42:f7:bd:a9:b2:36:22:
                    5f:c7:5d:7f:b4
                ASN1 OID: prime256v1
                NIST CURVE: P-256
        X509v3 extensions:
            X509v3 Subject Key Identifier: 
                EB:D4:4B:59:6B:95:61:3F:51:57:B6:04:4D:89:41:88:44:5C:AB:F2
            X509v3 Authority Key Identifier: 
                keyid:EB:D4:4B:59:6B:95:61:3F:51:57:B6:04:4D:89:41:88:44:5C:AB:F2
                DirName:/C=US/ST=Oregon/L=Salem/O=Client ECC/OU=Fast/CN=www.wolfssl.com/emailAddress=info@wolfssl.com
                serial:E7:72:A6:9E:13:1D:17:5C

            X509v3 Basic Constraints: 
                CA:TRUE
    Signature Algorithm: ecdsa-with-SHA256
         30:45:02:20:43:9a:b6:7e:87:8e:8c:d7:16:f1:0d:d2:50:11:
         a4:ac:b6:ac:07:ef:e9:60:e1:90:a2:5f:c9:76:e6:54:1a:81:
         02:21:00:d6:8b:7c:ba:53:12:05:06:fa:8f:c5:c7:58:c3:9a:
         9f:a1:84:8c:b4:88:83:4d:6a:b4:b7:85:7a:b3:3c:f3:df
-----BEGIN CERTIFICATE-----
MIIDCTCCAq+gAwIBAgIJAOdypp4THRdcMAoGCCqGSM49BAMCMIGNMQswCQYDVQQG
EwJVUzEPMA0GA1UECAwGT3JlZ29uMQ4wDAYDVQQHDAVTYWxlbTETMBEGA1UECgwK
Q2xpZW50IEVDQzENMAsGA1UECwwERmFzdDEYMBYGA1UEAwwPd3d3LndvbGZzc2wu
Y29tMR8wHQYJKoZIhvcNAQkBFhBpbmZvQHdvbGZzc2wuY29tMB4XDTE2MDgxMTIw
MDczOFoXDTE5MDUwODIwMDczOFowgY0xCzAJBgNVBAYTAlVTMQ8wDQYDVQQIDAZP
cmVnb24xDjAMBgNVBAcMBVNhbGVtMRMwEQYDVQQKDApDbGllbnQgRUNDMQ0wCwYD
VQQLDARGYXN0MRgwFgYDVQQDDA93d3cud29sZnNzbC5jb20xHzAdBgkqhkiG9w0B
CQEWEGluZm9Ad29sZnNzbC5jb20wWTATBgcqhkjOPQIBBggqhkjOPQMBBwNCAARV
v/QPRFCaPc6bt/DFTfVwe9TsJI4ZgOxaTKIkA2Ism9rvojUSQ4R2FsZWlQbMAam9
9nUaQve9qbI2Il/HXX+0o4H1MIHyMB0GA1UdDgQWBBTr1EtZa5VhP1FXtgRNiUGI
RFyr8jCBwgYDVR0jBIG6MIG3gBTr1EtZa5VhP1FXtgRNiUGIRFyr8qGBk6SBkDCB
jTELMAkGA1UEBhMCVVMxDzANBgNVBAgMBk9yZWdvbjEOMAwGA1UEBwwFU2FsZW0x
EzARBgNVBAoMCkNsaWVudCBFQ0MxDTALBgNVBAsMBEZhc3QxGDAWBgNVBAMMD3d3
dy53b2xmc3NsLmNvbTEfMB0GCSqGSIb3DQEJARYQaW5mb0B3b2xmc3NsLmNvbYIJ
AOdypp4THRdcMAwGA1UdEwQFMAMBAf8wCgYIKoZIzj0EAwIDSAAwRQIgQ5q2foeO
jNcW8Q3SUBGkrLasB+/pYOGQol/JduZUGoECIQDWi3y6UxIFBvqPxcdYw5qfoYSM
tIiDTWq0t4V6szzz3w==
-----END CERTIFICATE-----
