Certificate Revocation List (CRL):
        Version 2 (0x1)
    Signature Algorithm: sha1WithRSAEncryption
        Issuer: /C=US/ST=Montana/L=Bozeman/OU=Engineering/CN=www.nomatch.com/emailAddress=info@wolfssl.com
        Last Update: Jun 13 16:02:51 2018 GMT
        Next Update: Mar  9 16:02:51 2021 GMT
        CRL extensions:
            X509v3 CRL Number: 
                1
No Revoked Certificates.
    Signature Algorithm: sha1WithRSAEncryption
         60:64:8d:80:20:c1:5e:48:cc:61:ba:31:b1:59:13:21:8c:d0:
         ff:a3:ed:70:b0:ba:04:67:df:bb:f0:aa:db:71:85:2d:c3:ae:
         ab:79:a0:83:68:df:70:f5:85:1a:8e:7c:6d:91:89:a3:af:ae:
         4f:72:05:37:d9:aa:76:a5:86:10:0a:89:7a:d9:06:6a:6b:43:
         51:8c:b3:ce:28:79:0c:70:d0:9a:f7:89:a5:ff:5f:4a:08:2f:
         ca:3c:83:3e:d2:74:c1:02:37:f9:5d:e8:10:d2:7a:d1:df:b7:
         13:40:34:2c:c5:61:71:d7:24:79:46:26:f7:b7:6f:b5:05:8a:
         96:d6:a8:89:73:e6:ac:5b:96:df:be:08:6d:2b:2e:da:00:c8:
         dc:11:54:c2:b9:f5:80:21:79:98:12:5d:91:bb:54:61:d8:d0:
         c1:42:3d:9c:24:d5:11:0e:33:ea:3e:84:66:6e:65:2c:59:c5:
         c9:b8:7b:e8:b3:ce:fc:66:d8:cc:68:98:55:9a:ff:54:fe:b0:
         74:1f:d7:cc:af:f8:76:b9:ed:cf:46:07:2e:74:0e:50:b9:e9:
         46:28:22:82:d7:2b:3c:81:81:e8:12:f1:5c:6e:88:ac:c7:c5:
         3c:1d:46:95:ff:9e:fe:7f:38:6c:a6:4d:ac:75:86:d4:4c:8a:
         75:e9:a2:88
-----BEGIN X509 CRL-----
MIIB3DCBxQIBATANBgkqhkiG9w0BAQUFADCBgjELMAkGA1UEBhMCVVMxEDAOBgNV
BAgMB01vbnRhbmExEDAOBgNVBAcMB0JvemVtYW4xFDASBgNVBAsMC0VuZ2luZWVy
aW5nMRgwFgYDVQQDDA93d3cubm9tYXRjaC5jb20xHzAdBgkqhkiG9w0BCQEWEGlu
Zm9Ad29sZnNzbC5jb20XDTE4MDYxMzE2MDI1MVoXDTIxMDMwOTE2MDI1MVqgDjAM
MAoGA1UdFAQDAgEBMA0GCSqGSIb3DQEBBQUAA4IBAQBgZI2AIMFeSMxhujGxWRMh
jND/o+1wsLoEZ9+78KrbcYUtw66reaCDaN9w9YUajnxtkYmjr65PcgU32ap2pYYQ
Col62QZqa0NRjLPOKHkMcNCa94ml/19KCC/KPIM+0nTBAjf5XegQ0nrR37cTQDQs
xWFx1yR5Rib3t2+1BYqW1qiJc+asW5bfvghtKy7aAMjcEVTCufWAIXmYEl2Ru1Rh
2NDBQj2cJNURDjPqPoRmbmUsWcXJuHvos878ZtjMaJhVmv9U/rB0H9fMr/h2ue3P
RgcudA5QuelGKCKC1ys8gYHoEvFcboisx8U8HUaV/57+fzhspk2sdYbUTIp16aKI
-----END X509 CRL-----
