Certificate Revocation List (CRL):
        Version 2 (0x1)
    Signature Algorithm: sha1WithRSAEncryption
        Issuer: /C=US/ST=Montana/L=Bozeman/OU=Engineering/CN=www.nomatch.com/emailAddress=info@wolfssl.com
        Last Update: Jun 12 23:10:47 2018 GMT
        Next Update: Mar  8 23:10:47 2021 GMT
        CRL extensions:
            X509v3 CRL Number: 
                1
No Revoked Certificates.
    Signature Algorithm: sha1WithRSAEncryption
         16:c2:f1:59:3a:bb:50:6c:b0:f8:c4:e8:29:ac:cc:33:a7:e8:
         bb:12:88:0b:9b:a0:2f:bf:39:d7:97:c9:9c:17:60:e5:31:5f:
         9f:5d:ce:70:ff:1e:aa:6f:5a:72:8c:29:a3:70:3a:bb:33:e5:
         2a:c8:61:03:96:3e:96:81:7c:fb:0d:5c:b7:67:b0:44:90:a7:
         24:63:9b:df:80:ec:8c:3a:0b:8c:16:2e:09:09:9e:fd:f8:0d:
         fa:a5:63:a3:d4:6a:28:10:ab:57:3a:59:e7:1f:84:e5:30:ad:
         17:fd:f7:15:c2:75:e8:18:46:c3:5d:2c:4e:6f:ec:bd:8c:fa:
         8f:00:9e:4a:1c:c3:0d:cf:2e:24:9a:fc:13:9c:76:91:ac:e0:
         87:dd:fa:37:7a:24:72:35:1a:97:56:2f:13:0e:75:11:cd:e2:
         41:dd:12:b0:63:2f:01:52:af:dd:63:5d:59:7c:16:ed:a4:bb:
         89:d2:42:27:7f:69:c5:09:0c:db:8a:d7:0e:4b:70:ea:1f:17:
         68:a5:ac:86:66:25:1c:d4:89:47:8e:64:4f:08:30:35:5e:69:
         11:53:21:e9:c6:bd:16:ec:84:51:69:2b:bd:4a:de:65:f1:be:
         5d:32:b2:fd:85:0d:d0:47:60:c0:fc:56:d8:d6:7e:05:d2:ac:
         0c:44:1f:c7
-----BEGIN X509 CRL-----
MIIB3DCBxQIBATANBgkqhkiG9w0BAQUFADCBgjELMAkGA1UEBhMCVVMxEDAOBgNV
BAgMB01vbnRhbmExEDAOBgNVBAcMB0JvemVtYW4xFDASBgNVBAsMC0VuZ2luZWVy
aW5nMRgwFgYDVQQDDA93d3cubm9tYXRjaC5jb20xHzAdBgkqhkiG9w0BCQEWEGlu
Zm9Ad29sZnNzbC5jb20XDTE4MDYxMjIzMTA0N1oXDTIxMDMwODIzMTA0N1qgDjAM
MAoGA1UdFAQDAgEBMA0GCSqGSIb3DQEBBQUAA4IBAQAWwvFZOrtQbLD4xOgprMwz
p+i7EogLm6AvvznXl8mcF2DlMV+fXc5w/x6qb1pyjCmjcDq7M+UqyGEDlj6WgXz7
DVy3Z7BEkKckY5vfgOyMOguMFi4JCZ79+A36pWOj1GooEKtXOlnnH4TlMK0X/fcV
wnXoGEbDXSxOb+y9jPqPAJ5KHMMNzy4kmvwTnHaRrOCH3fo3eiRyNRqXVi8TDnUR
zeJB3RKwYy8BUq/dY11ZfBbtpLuJ0kInf2nFCQzbitcOS3DqHxdopayGZiUc1IlH
jmRPCDA1XmkRUyHpxr0W7IRRaSu9St5l8b5dMrL9hQ3QR2DA/FbY1n4F0qwMRB/H
-----END X509 CRL-----
