Certificate Revocation List (CRL):
        Version 2 (0x1)
    Signature Algorithm: sha1WithRSAEncryption
        Issuer: /C=US/ST=Montana/L=Bozeman/OU=Engineering/CN=localhost/emailAddress=info@wolfssl.com
        Last Update: Jun 13 16:02:51 2018 GMT
        Next Update: Mar  9 16:02:51 2021 GMT
        CRL extensions:
            X509v3 CRL Number: 
                1
No Revoked Certificates.
    Signature Algorithm: sha1WithRSAEncryption
         b9:a1:1b:20:dd:23:b2:20:e4:b5:97:84:21:44:e6:f1:98:0b:
         6b:30:22:d2:85:8e:11:19:17:e9:8a:0c:4d:cd:12:61:b0:a1:
         62:a0:4a:58:05:e2:b7:ba:50:86:41:8e:46:ae:c5:8a:36:7c:
         c8:ea:94:f3:30:53:46:2b:0f:1c:b3:d0:01:f1:ad:47:e1:a8:
         18:65:e1:b2:32:8d:4d:31:32:f3:54:92:39:e3:f2:cc:2d:a1:
         90:f2:51:79:69:c7:f8:28:ac:53:a9:c2:49:a7:d3:b7:cc:cb:
         ac:6f:7d:d5:e5:8e:a1:8f:a6:51:8a:e9:b2:43:e6:5b:7e:e8:
         dd:19:a0:00:ba:a3:71:ce:33:a2:bb:77:9c:6d:75:89:fd:1a:
         19:da:0a:b4:6a:12:36:e9:cf:e3:83:e1:33:be:41:5b:72:45:
         21:11:69:90:aa:72:f7:09:50:cb:d2:d5:df:63:da:7d:0b:29:
         5e:c1:cf:cc:d5:11:07:40:92:04:6a:3b:8e:0a:7a:5f:12:f3:
         36:d5:fd:af:84:5f:4c:bd:a1:b4:b1:f4:db:d1:03:5a:38:22:
         bc:17:7a:ff:39:78:4a:c0:c7:b3:f3:3c:02:84:cd:93:30:5b:
         aa:94:11:32:b8:6f:d3:54:7f:16:e8:b4:d7:54:1b:65:2e:7b:
         d1:70:bb:e9
-----BEGIN X509 CRL-----
MIIB1TCBvgIBATANBgkqhkiG9w0BAQUFADB8MQswCQYDVQQGEwJVUzEQMA4GA1UE
CAwHTW9udGFuYTEQMA4GA1UEBwwHQm96ZW1hbjEUMBIGA1UECwwLRW5naW5lZXJp
bmcxEjAQBgNVBAMMCWxvY2FsaG9zdDEfMB0GCSqGSIb3DQEJARYQaW5mb0B3b2xm
c3NsLmNvbRcNMTgwNjEzMTYwMjUxWhcNMjEwMzA5MTYwMjUxWqAOMAwwCgYDVR0U
BAMCAQEwDQYJKoZIhvcNAQEFBQADggEBALmhGyDdI7Ig5LWXhCFE5vGYC2swItKF
jhEZF+mKDE3NEmGwoWKgSlgF4re6UIZBjkauxYo2fMjqlPMwU0YrDxyz0AHxrUfh
qBhl4bIyjU0xMvNUkjnj8swtoZDyUXlpx/gorFOpwkmn07fMy6xvfdXljqGPplGK
6bJD5lt+6N0ZoAC6o3HOM6K7d5xtdYn9GhnaCrRqEjbpz+OD4TO+QVtyRSERaZCq
cvcJUMvS1d9j2n0LKV7Bz8zVEQdAkgRqO44Kel8S8zbV/a+EX0y9obSx9NvRA1o4
IrwXev85eErAx7PzPAKEzZMwW6qUETK4b9NUfxbotNdUG2Uue9Fwu+k=
-----END X509 CRL-----
