Certificate Revocation List (CRL):
        Version 2 (0x1)
    Signature Algorithm: sha1WithRSAEncryption
        Issuer: /C=US/ST=Montana/L=Bozeman/OU=Engineering/CN=*localhost/emailAddress=info@wolfssl.com
        Last Update: Jun 12 23:10:47 2018 GMT
        Next Update: Mar  8 23:10:47 2021 GMT
        CRL extensions:
            X509v3 CRL Number: 
                1
No Revoked Certificates.
    Signature Algorithm: sha1WithRSAEncryption
         79:7e:bd:34:d2:3d:f5:91:b1:79:de:50:c2:26:d5:8e:05:f7:
         30:26:bd:2f:dd:6a:a1:cf:15:91:fd:95:30:a7:04:5a:65:33:
         e4:fb:63:79:dd:6e:63:bd:d1:55:bd:c8:22:3c:c2:6a:40:38:
         75:85:6a:e1:24:a3:99:e3:13:30:c2:cb:15:cc:50:4b:03:87:
         b8:90:9c:e8:95:2a:62:1f:ed:33:30:a8:04:9f:67:b7:4c:bd:
         31:b3:19:59:18:9c:6d:64:c2:22:d4:8d:8e:7e:98:c2:39:b0:
         28:35:ed:8f:37:6b:03:57:3b:ef:e8:28:26:8a:f0:de:8a:21:
         e8:c3:d9:68:2e:ee:cb:cb:89:4f:af:4d:37:ad:98:64:38:6e:
         d8:87:fb:3b:0b:b6:a5:58:da:5e:f2:81:a1:18:90:d6:1b:f7:
         8a:1b:11:3a:6d:55:0c:09:4d:cd:ea:43:01:a4:92:05:50:7e:
         b4:1a:8f:54:b2:cb:4c:94:09:e0:85:cc:29:22:e4:5b:29:ee:
         65:91:e3:4a:f9:64:19:40:25:17:27:a1:91:2b:2e:18:6d:2a:
         26:9a:e3:82:05:a6:0b:67:24:a1:dc:d4:29:ad:47:f0:89:28:
         65:da:fe:fc:62:86:47:05:51:54:08:dc:b3:e5:99:48:d6:da:
         52:be:85:7c
-----BEGIN X509 CRL-----
MIIB1jCBvwIBATANBgkqhkiG9w0BAQUFADB9MQswCQYDVQQGEwJVUzEQMA4GA1UE
CAwHTW9udGFuYTEQMA4GA1UEBwwHQm96ZW1hbjEUMBIGA1UECwwLRW5naW5lZXJp
bmcxEzARBgNVBAMMCipsb2NhbGhvc3QxHzAdBgkqhkiG9w0BCQEWEGluZm9Ad29s
ZnNzbC5jb20XDTE4MDYxMjIzMTA0N1oXDTIxMDMwODIzMTA0N1qgDjAMMAoGA1Ud
FAQDAgEBMA0GCSqGSIb3DQEBBQUAA4IBAQB5fr000j31kbF53lDCJtWOBfcwJr0v
3WqhzxWR/ZUwpwRaZTPk+2N53W5jvdFVvcgiPMJqQDh1hWrhJKOZ4xMwwssVzFBL
A4e4kJzolSpiH+0zMKgEn2e3TL0xsxlZGJxtZMIi1I2OfpjCObAoNe2PN2sDVzvv
6CgmivDeiiHow9loLu7Ly4lPr003rZhkOG7Yh/s7C7alWNpe8oGhGJDWG/eKGxE6
bVUMCU3N6kMBpJIFUH60Go9UsstMlAnghcwpIuRbKe5lkeNK+WQZQCUXJ6GRKy4Y
bSommuOCBaYLZySh3NQprUfwiShl2v78YoZHBVFUCNyz5ZlI1tpSvoV8
-----END X509 CRL-----
