Certificate:
    Data:
        Version: 3 (0x2)
        Serial Number: 104 (0x68)
    Signature Algorithm: sha1WithRSAEncryption
        Issuer: C=US, ST=Washington, L=Seattle, O=wolfSSL Inc., OU=Engineering, CN=Server 1-0 CA/emailAddress=info@wolfssl.com
        Validity
            Not Before: Sep 20 00:07:57 2016 GMT
            Not After : Jun 17 00:07:57 2019 GMT
        Subject: C=US, ST=Washington, L=Seattle, O=wolfSSL Inc., OU=Engineering, CN=Server 1-0/emailAddress=info@wolfssl.com
        Subject Public Key Info:
            Public Key Algorithm: rsaEncryption
                Public-Key: (2048 bit)
                Modulus:
                    00:c0:95:08:e1:57:41:f2:71:6d:b7:d2:45:41:27:
                    01:65:c6:45:ae:f2:bc:24:30:b8:95:ce:2f:4e:d6:
                    f6:1c:88:bc:7c:9f:fb:a8:67:7f:fe:5c:9c:51:75:
                    f7:8a:ca:07:e7:35:2f:8f:e1:bd:7b:c0:2f:7c:ab:
                    64:a8:17:fc:ca:5d:7b:ba:e0:21:e5:72:2e:6f:2e:
                    86:d8:95:73:da:ac:1b:53:b9:5f:3f:d7:19:0d:25:
                    4f:e1:63:63:51:8b:0b:64:3f:ad:43:b8:a5:1c:5c:
                    34:b3:ae:00:a0:63:c5:f6:7f:0b:59:68:78:73:a6:
                    8c:18:a9:02:6d:af:c3:19:01:2e:b8:10:e3:c6:cc:
                    40:b4:69:a3:46:33:69:87:6e:c4:bb:17:a6:f3:e8:
                    dd:ad:73:bc:7b:2f:21:b5:fd:66:51:0c:bd:54:b3:
                    e1:6d:5f:1c:bc:23:73:d1:09:03:89:14:d2:10:b9:
                    64:c3:2a:d0:a1:96:4a:bc:e1:d4:1a:5b:c7:a0:c0:
                    c1:63:78:0f:44:37:30:32:96:80:32:23:95:a1:77:
                    ba:13:d2:97:73:e2:5d:25:c9:6a:0d:c3:39:60:a4:
                    b4:b0:69:42:42:09:e9:d8:08:bc:33:20:b3:58:22:
                    a7:aa:eb:c4:e1:e6:61:83:c5:d2:96:df:d9:d0:4f:
                    ad:d7
                Exponent: 65537 (0x10001)
        X509v3 extensions:
            X509v3 Subject Key Identifier: 
                B3:11:32:C9:92:98:84:E2:C9:F8:D0:3B:6E:03:42:CA:1F:0E:8E:3C
            X509v3 Authority Key Identifier: 
                keyid:B3:11:32:C9:92:98:84:E2:C9:F8:D0:3B:6E:03:42:CA:1F:0E:8E:3C
                DirName:/C=US/ST=Washington/L=Seattle/O=wolfSSL Inc./OU=Engineering/CN=Server 1 CA/emailAddress=info@wolfssl.com
                serial:67

            X509v3 Basic Constraints: 
                CA:FALSE
    Signature Algorithm: sha1WithRSAEncryption
         6d:98:b9:e7:03:b3:0e:36:15:f5:6f:6c:60:59:9d:60:95:cb:
         8c:31:f6:b7:7d:27:6a:37:99:79:cb:06:89:4a:87:c8:a6:d7:
         86:46:5c:f3:02:f9:37:98:3a:d2:59:3a:37:59:7e:46:58:ee:
         18:b2:77:a9:85:39:45:e1:05:d4:a7:bc:1e:cc:4a:a3:be:1e:
         7e:58:15:79:c4:25:8f:1d:3f:f4:e2:5d:3c:c1:a5:45:f3:e0:
         fd:97:96:49:78:c7:c7:e2:e9:78:97:91:9c:44:a3:f9:b4:cc:
         14:61:b4:03:55:ef:d2:33:3b:8d:8e:01:e1:a1:27:a4:1e:66:
         06:13:0b:e0:5b:6b:69:8a:8a:c8:c5:a9:a3:8f:6e:dd:25:03:
         5f:3f:65:21:8e:d5:b2:dc:0e:e1:b6:d2:fd:9c:d8:99:33:f6:
         4b:8c:71:2b:9e:0a:3a:40:a5:28:ef:d8:65:fb:08:2f:f4:e9:
         2b:d6:7c:9c:09:1c:6e:aa:f0:7f:67:13:dc:a3:e6:fa:5c:49:
         04:ba:55:d4:3e:4d:17:3d:e9:13:bf:b1:95:e8:71:41:47:4a:
         73:52:97:85:71:ac:a1:b7:32:82:64:77:c2:53:5c:f0:35:81:
         34:10:77:09:69:04:73:05:39:b6:62:2e:fd:37:a4:20:3e:40:
         98:a5:e5:dc
-----BEGIN CERTIFICATE-----
MIIEpDCCA4ygAwIBAgIBaDANBgkqhkiG9w0BAQUFADCBmjELMAkGA1UEBhMCVVMx
EzARBgNVBAgMCldhc2hpbmd0b24xEDAOBgNVBAcMB1NlYXR0bGUxFTATBgNVBAoM
DHdvbGZTU0wgSW5jLjEUMBIGA1UECwwLRW5naW5lZXJpbmcxFjAUBgNVBAMMDVNl
cnZlciAxLTAgQ0ExHzAdBgkqhkiG9w0BCQEWEGluZm9Ad29sZnNzbC5jb20wHhcN
MTYwOTIwMDAwNzU3WhcNMTkwNjE3MDAwNzU3WjCBlzELMAkGA1UEBhMCVVMxEzAR
BgNVBAgMCldhc2hpbmd0b24xEDAOBgNVBAcMB1NlYXR0bGUxFTATBgNVBAoMDHdv
bGZTU0wgSW5jLjEUMBIGA1UECwwLRW5naW5lZXJpbmcxEzARBgNVBAMMClNlcnZl
ciAxLTAxHzAdBgkqhkiG9w0BCQEWEGluZm9Ad29sZnNzbC5jb20wggEiMA0GCSqG
SIb3DQEBAQUAA4IBDwAwggEKAoIBAQDAlQjhV0HycW230kVBJwFlxkWu8rwkMLiV
zi9O1vYciLx8n/uoZ3/+XJxRdfeKygfnNS+P4b17wC98q2SoF/zKXXu64CHlci5v
LobYlXParBtTuV8/1xkNJU/hY2NRiwtkP61DuKUcXDSzrgCgY8X2fwtZaHhzpowY
qQJtr8MZAS64EOPGzEC0aaNGM2mHbsS7F6bz6N2tc7x7LyG1/WZRDL1Us+FtXxy8
I3PRCQOJFNIQuWTDKtChlkq84dQaW8egwMFjeA9ENzAyloAyI5Whd7oT0pdz4l0l
yWoNwzlgpLSwaUJCCenYCLwzILNYIqeq68Th5mGDxdKW39nQT63XAgMBAAGjgfUw
gfIwHQYDVR0OBBYEFLMRMsmSmITiyfjQO24DQsofDo48MIHFBgNVHSMEgb0wgbqA
FLMRMsmSmITiyfjQO24DQsofDo48oYGepIGbMIGYMQswCQYDVQQGEwJVUzETMBEG
A1UECAwKV2FzaGluZ3RvbjEQMA4GA1UEBwwHU2VhdHRsZTEVMBMGA1UECgwMd29s
ZlNTTCBJbmMuMRQwEgYDVQQLDAtFbmdpbmVlcmluZzEUMBIGA1UEAwwLU2VydmVy
IDEgQ0ExHzAdBgkqhkiG9w0BCQEWEGluZm9Ad29sZnNzbC5jb22CAWcwCQYDVR0T
BAIwADANBgkqhkiG9w0BAQUFAAOCAQEAbZi55wOzDjYV9W9sYFmdYJXLjDH2t30n
ajeZecsGiUqHyKbXhkZc8wL5N5g60lk6N1l+RljuGLJ3qYU5ReEF1Ke8HsxKo74e
flgVecQljx0/9OJdPMGlRfPg/ZeWSXjHx+LpeJeRnESj+bTMFGG0A1Xv0jM7jY4B
4aEnpB5mBhML4FtraYqKyMWpo49u3SUDXz9lIY7VstwO4bbS/ZzYmTP2S4xxK54K
OkClKO/YZfsIL/TpK9Z8nAkcbqrwf2cT3KPm+lxJBLpV1D5NFz3pE7+xlehxQUdK
c1KXhXGsobcygmR3wlNc8DWBNBB3CWkEcwU5tmIu/TekID5AmKXl3A==
-----END CERTIFICATE-----
Certificate:
    Data:
        Version: 3 (0x2)
        Serial Number: 103 (0x67)
    Signature Algorithm: sha1WithRSAEncryption
        Issuer: C=US, ST=Washington, L=Seattle, O=wolfSSL Inc., OU=Engineering, CN=Server 1 CA/emailAddress=info@wolfssl.com
        Validity
            Not Before: Sep 20 21:23:18 2016 GMT
            Not After : Jun 16 21:23:18 2019 GMT
        Subject: C=US, ST=Washington, L=Seattle, O=wolfSSL Inc., OU=Engineering, CN=Server 1-0 CA/emailAddress=info@wolfssl.com
        Subject Public Key Info:
            Public Key Algorithm: rsaEncryption
                Public-Key: (2048 bit)
                Modulus:
                    00:c0:95:08:e1:57:41:f2:71:6d:b7:d2:45:41:27:
                    01:65:c6:45:ae:f2:bc:24:30:b8:95:ce:2f:4e:d6:
                    f6:1c:88:bc:7c:9f:fb:a8:67:7f:fe:5c:9c:51:75:
                    f7:8a:ca:07:e7:35:2f:8f:e1:bd:7b:c0:2f:7c:ab:
                    64:a8:17:fc:ca:5d:7b:ba:e0:21:e5:72:2e:6f:2e:
                    86:d8:95:73:da:ac:1b:53:b9:5f:3f:d7:19:0d:25:
                    4f:e1:63:63:51:8b:0b:64:3f:ad:43:b8:a5:1c:5c:
                    34:b3:ae:00:a0:63:c5:f6:7f:0b:59:68:78:73:a6:
                    8c:18:a9:02:6d:af:c3:19:01:2e:b8:10:e3:c6:cc:
                    40:b4:69:a3:46:33:69:87:6e:c4:bb:17:a6:f3:e8:
                    dd:ad:73:bc:7b:2f:21:b5:fd:66:51:0c:bd:54:b3:
                    e1:6d:5f:1c:bc:23:73:d1:09:03:89:14:d2:10:b9:
                    64:c3:2a:d0:a1:96:4a:bc:e1:d4:1a:5b:c7:a0:c0:
                    c1:63:78:0f:44:37:30:32:96:80:32:23:95:a1:77:
                    ba:13:d2:97:73:e2:5d:25:c9:6a:0d:c3:39:60:a4:
                    b4:b0:69:42:42:09:e9:d8:08:bc:33:20:b3:58:22:
                    a7:aa:eb:c4:e1:e6:61:83:c5:d2:96:df:d9:d0:4f:
                    ad:d7
                Exponent: 65537 (0x10001)
        X509v3 extensions:
            X509v3 Subject Key Identifier: 
                B3:11:32:C9:92:98:84:E2:C9:F8:D0:3B:6E:03:42:CA:1F:0E:8E:3C
            X509v3 Authority Key Identifier: 
                keyid:B3:11:32:C9:92:98:84:E2:C9:F8:D0:3B:6E:03:42:CA:1F:0E:8E:3C
                DirName:/C=US/ST=Montana/L=Bozeman/O=Sawtooth/OU=Consulting/CN=www.wolfssl.com/emailAddress=info@wolfssl.com
                serial:66

            X509v3 Basic Constraints: 
                CA:TRUE, pathlen:0
            X509v3 Key Usage: 
                Certificate Sign, CRL Sign
    Signature Algorithm: sha1WithRSAEncryption
         37:78:ec:5f:82:05:c6:19:f6:3a:be:82:5f:1e:d3:69:26:20:
         92:f2:24:e8:6d:5f:44:70:ca:bd:53:24:ab:1f:58:6b:24:08:
         d0:3a:a6:46:d3:1d:63:7c:22:8b:4a:e2:69:9e:de:03:08:91:
         b5:37:bb:55:fe:91:fc:b4:2f:ce:9f:58:f7:80:6c:77:ed:82:
         6d:93:f0:30:9b:42:21:dc:98:64:87:df:f5:2f:f6:90:d9:af:
         7b:e0:98:68:07:3a:bd:70:60:e6:c8:4b:a2:c7:aa:9d:3b:cf:
         79:07:44:57:86:cc:e2:3a:7d:b1:ee:c7:61:48:8c:0e:b0:8d:
         0c:f6:c2:3e:e2:68:2d:50:a7:ac:5b:86:6e:f5:d1:5e:24:dd:
         b7:c4:23:c0:90:82:e1:4f:bb:a7:6f:94:d3:9b:a3:28:30:12:
         8b:57:18:79:91:92:44:97:ff:08:75:49:74:3b:a8:91:ca:30:
         e0:d0:5b:90:b7:26:14:69:b8:fe:72:fa:cd:8a:da:75:28:6d:
         e2:e4:82:83:83:01:e4:60:c8:67:5b:ef:04:a9:29:2a:6d:64:
         1a:fc:fd:52:57:57:56:b3:bb:06:0e:e5:5f:22:d1:88:6b:12:
         aa:f1:d5:91:09:c9:5c:1c:55:18:e6:34:fa:cd:d7:aa:bf:04:
         fa:58:7d:cf
-----BEGIN CERTIFICATE-----
MIIEtjCCA56gAwIBAgIBZzANBgkqhkiG9w0BAQUFADCBmDELMAkGA1UEBhMCVVMx
EzARBgNVBAgMCldhc2hpbmd0b24xEDAOBgNVBAcMB1NlYXR0bGUxFTATBgNVBAoM
DHdvbGZTU0wgSW5jLjEUMBIGA1UECwwLRW5naW5lZXJpbmcxFDASBgNVBAMMC1Nl
cnZlciAxIENBMR8wHQYJKoZIhvcNAQkBFhBpbmZvQHdvbGZzc2wuY29tMB4XDTE2
MDkyMDIxMjMxOFoXDTE5MDYxNjIxMjMxOFowgZoxCzAJBgNVBAYTAlVTMRMwEQYD
VQQIDApXYXNoaW5ndG9uMRAwDgYDVQQHDAdTZWF0dGxlMRUwEwYDVQQKDAx3b2xm
U1NMIEluYy4xFDASBgNVBAsMC0VuZ2luZWVyaW5nMRYwFAYDVQQDDA1TZXJ2ZXIg
MS0wIENBMR8wHQYJKoZIhvcNAQkBFhBpbmZvQHdvbGZzc2wuY29tMIIBIjANBgkq
hkiG9w0BAQEFAAOCAQ8AMIIBCgKCAQEAwJUI4VdB8nFtt9JFQScBZcZFrvK8JDC4
lc4vTtb2HIi8fJ/7qGd//lycUXX3isoH5zUvj+G9e8AvfKtkqBf8yl17uuAh5XIu
by6G2JVz2qwbU7lfP9cZDSVP4WNjUYsLZD+tQ7ilHFw0s64AoGPF9n8LWWh4c6aM
GKkCba/DGQEuuBDjxsxAtGmjRjNph27Euxem8+jdrXO8ey8htf1mUQy9VLPhbV8c
vCNz0QkDiRTSELlkwyrQoZZKvOHUGlvHoMDBY3gPRDcwMpaAMiOVoXe6E9KXc+Jd
JclqDcM5YKS0sGlCQgnp2Ai8MyCzWCKnquvE4eZhg8XSlt/Z0E+t1wIDAQABo4IB
BTCCAQEwHQYDVR0OBBYEFLMRMsmSmITiyfjQO24DQsofDo48MIHBBgNVHSMEgbkw
gbaAFLMRMsmSmITiyfjQO24DQsofDo48oYGapIGXMIGUMQswCQYDVQQGEwJVUzEQ
MA4GA1UECAwHTW9udGFuYTEQMA4GA1UEBwwHQm96ZW1hbjERMA8GA1UECgwIU2F3
dG9vdGgxEzARBgNVBAsMCkNvbnN1bHRpbmcxGDAWBgNVBAMMD3d3dy53b2xmc3Ns
LmNvbTEfMB0GCSqGSIb3DQEJARYQaW5mb0B3b2xmc3NsLmNvbYIBZjAPBgNVHRME
CDAGAQH/AgEAMAsGA1UdDwQEAwIBBjANBgkqhkiG9w0BAQUFAAOCAQEAN3jsX4IF
xhn2Or6CXx7TaSYgkvIk6G1fRHDKvVMkqx9YayQI0DqmRtMdY3wii0riaZ7eAwiR
tTe7Vf6R/LQvzp9Y94Bsd+2CbZPwMJtCIdyYZIff9S/2kNmve+CYaAc6vXBg5shL
oseqnTvPeQdEV4bM4jp9se7HYUiMDrCNDPbCPuJoLVCnrFuGbvXRXiTdt8QjwJCC
4U+7p2+U05ujKDASi1cYeZGSRJf/CHVJdDuokcow4NBbkLcmFGm4/nL6zYradSht
4uSCg4MB5GDIZ1vvBKkpKm1kGvz9UldXVrO7Bg7lXyLRiGsSqvHVkQnJXBxVGOY0
+s3Xqr8E+lh9zw==
-----END CERTIFICATE-----
Certificate:
    Data:
        Version: 3 (0x2)
        Serial Number: 102 (0x66)
    Signature Algorithm: sha1WithRSAEncryption
        Issuer: C=US, ST=Montana, L=Bozeman, O=Sawtooth, OU=Consulting, CN=www.wolfssl.com/emailAddress=info@wolfssl.com
        Validity
            Not Before: Sep 19 23:16:34 2016 GMT
            Not After : Jun 16 23:16:34 2019 GMT
        Subject: C=US, ST=Washington, L=Seattle, O=wolfSSL Inc., OU=Engineering, CN=Server 1 CA/emailAddress=info@wolfssl.com
        Subject Public Key Info:
            Public Key Algorithm: rsaEncryption
                Public-Key: (2048 bit)
                Modulus:
                    00:c0:95:08:e1:57:41:f2:71:6d:b7:d2:45:41:27:
                    01:65:c6:45:ae:f2:bc:24:30:b8:95:ce:2f:4e:d6:
                    f6:1c:88:bc:7c:9f:fb:a8:67:7f:fe:5c:9c:51:75:
                    f7:8a:ca:07:e7:35:2f:8f:e1:bd:7b:c0:2f:7c:ab:
                    64:a8:17:fc:ca:5d:7b:ba:e0:21:e5:72:2e:6f:2e:
                    86:d8:95:73:da:ac:1b:53:b9:5f:3f:d7:19:0d:25:
                    4f:e1:63:63:51:8b:0b:64:3f:ad:43:b8:a5:1c:5c:
                    34:b3:ae:00:a0:63:c5:f6:7f:0b:59:68:78:73:a6:
                    8c:18:a9:02:6d:af:c3:19:01:2e:b8:10:e3:c6:cc:
                    40:b4:69:a3:46:33:69:87:6e:c4:bb:17:a6:f3:e8:
                    dd:ad:73:bc:7b:2f:21:b5:fd:66:51:0c:bd:54:b3:
                    e1:6d:5f:1c:bc:23:73:d1:09:03:89:14:d2:10:b9:
                    64:c3:2a:d0:a1:96:4a:bc:e1:d4:1a:5b:c7:a0:c0:
                    c1:63:78:0f:44:37:30:32:96:80:32:23:95:a1:77:
                    ba:13:d2:97:73:e2:5d:25:c9:6a:0d:c3:39:60:a4:
                    b4:b0:69:42:42:09:e9:d8:08:bc:33:20:b3:58:22:
                    a7:aa:eb:c4:e1:e6:61:83:c5:d2:96:df:d9:d0:4f:
                    ad:d7
                Exponent: 65537 (0x10001)
        X509v3 extensions:
            X509v3 Subject Key Identifier: 
                B3:11:32:C9:92:98:84:E2:C9:F8:D0:3B:6E:03:42:CA:1F:0E:8E:3C
            X509v3 Authority Key Identifier: 
                keyid:27:8E:67:11:74:C3:26:1D:3F:ED:33:63:B3:A4:D8:1D:30:E5:E8:D5
                DirName:/C=US/ST=Montana/L=Bozeman/O=Sawtooth/OU=Consulting/CN=www.wolfssl.com/emailAddress=info@wolfssl.com
                serial:B7:B6:90:33:66:1B:6B:23

            X509v3 Basic Constraints: 
                CA:TRUE, pathlen:1
            X509v3 Key Usage: 
                Certificate Sign, CRL Sign
    Signature Algorithm: sha1WithRSAEncryption
         83:fd:d4:aa:5d:ba:bd:55:4a:76:80:0b:7b:fb:ac:61:46:e5:
         e7:0d:2c:2b:85:d3:6a:af:40:4c:f1:51:2b:7d:8b:52:ce:77:
         4e:73:39:b2:77:79:95:a6:49:b9:8c:c3:99:8d:d5:71:f4:33:
         ca:dc:5a:81:7a:b3:ec:1e:97:ee:c8:b8:c7:ec:7e:91:74:5c:
         0a:78:e3:db:a4:6f:90:69:4c:4a:a8:4c:cd:96:f3:8e:94:31:
         86:48:b4:77:0a:c6:ee:8d:43:c9:2e:11:86:4c:0d:67:e0:8b:
         4c:d2:84:9d:18:88:ef:93:34:bb:69:93:c0:96:a0:d1:4f:b7:
         7e:a8:05:99:09:8e:39:66:13:8d:91:fe:05:12:c7:99:6a:2f:
         38:5e:58:2f:5d:0c:54:14:6b:c9:8a:dc:c2:21:ce:44:38:09:
         f3:13:96:23:12:a6:fc:24:a1:bc:8c:7e:65:9c:1f:e3:f9:58:
         a4:42:b7:20:97:29:c6:f2:b7:61:d2:67:25:ba:bb:c0:79:00:
         69:e1:30:6d:46:1d:ee:6e:44:ee:7d:9a:35:ef:bb:41:b4:ac:
         e0:78:9e:ef:c5:e4:19:09:05:22:0d:06:b3:16:52:df:90:fc:
         d5:fb:6f:52:bd:44:55:13:4b:86:81:0b:a9:75:74:64:33:32:
         8f:98:a8:50
-----BEGIN CERTIFICATE-----
MIIEuDCCA6CgAwIBAgIBZjANBgkqhkiG9w0BAQUFADCBlDELMAkGA1UEBhMCVVMx
EDAOBgNVBAgMB01vbnRhbmExEDAOBgNVBAcMB0JvemVtYW4xETAPBgNVBAoMCFNh
d3Rvb3RoMRMwEQYDVQQLDApDb25zdWx0aW5nMRgwFgYDVQQDDA93d3cud29sZnNz
bC5jb20xHzAdBgkqhkiG9w0BCQEWEGluZm9Ad29sZnNzbC5jb20wHhcNMTYwOTE5
MjMxNjM0WhcNMTkwNjE2MjMxNjM0WjCBmDELMAkGA1UEBhMCVVMxEzARBgNVBAgM
Cldhc2hpbmd0b24xEDAOBgNVBAcMB1NlYXR0bGUxFTATBgNVBAoMDHdvbGZTU0wg
SW5jLjEUMBIGA1UECwwLRW5naW5lZXJpbmcxFDASBgNVBAMMC1NlcnZlciAxIENB
MR8wHQYJKoZIhvcNAQkBFhBpbmZvQHdvbGZzc2wuY29tMIIBIjANBgkqhkiG9w0B
AQEFAAOCAQ8AMIIBCgKCAQEAwJUI4VdB8nFtt9JFQScBZcZFrvK8JDC4lc4vTtb2
HIi8fJ/7qGd//lycUXX3isoH5zUvj+G9e8AvfKtkqBf8yl17uuAh5XIuby6G2JVz
2qwbU7lfP9cZDSVP4WNjUYsLZD+tQ7ilHFw0s64AoGPF9n8LWWh4c6aMGKkCba/D
GQEuuBDjxsxAtGmjRjNph27Euxem8+jdrXO8ey8htf1mUQy9VLPhbV8cvCNz0QkD
iRTSELlkwyrQoZZKvOHUGlvHoMDBY3gPRDcwMpaAMiOVoXe6E9KXc+JdJclqDcM5
YKS0sGlCQgnp2Ai8MyCzWCKnquvE4eZhg8XSlt/Z0E+t1wIDAQABo4IBDTCCAQkw
HQYDVR0OBBYEFLMRMsmSmITiyfjQO24DQsofDo48MIHJBgNVHSMEgcEwgb6AFCeO
ZxF0wyYdP+0zY7Ok2B0w5ejVoYGapIGXMIGUMQswCQYDVQQGEwJVUzEQMA4GA1UE
CAwHTW9udGFuYTEQMA4GA1UEBwwHQm96ZW1hbjERMA8GA1UECgwIU2F3dG9vdGgx
EzARBgNVBAsMCkNvbnN1bHRpbmcxGDAWBgNVBAMMD3d3dy53b2xmc3NsLmNvbTEf
MB0GCSqGSIb3DQEJARYQaW5mb0B3b2xmc3NsLmNvbYIJALe2kDNmG2sjMA8GA1Ud
EwQIMAYBAf8CAQEwCwYDVR0PBAQDAgEGMA0GCSqGSIb3DQEBBQUAA4IBAQCD/dSq
Xbq9VUp2gAt7+6xhRuXnDSwrhdNqr0BM8VErfYtSzndOczmyd3mVpkm5jMOZjdVx
9DPK3FqBerPsHpfuyLjH7H6RdFwKeOPbpG+QaUxKqEzNlvOOlDGGSLR3CsbujUPJ
LhGGTA1n4ItM0oSdGIjvkzS7aZPAlqDRT7d+qAWZCY45ZhONkf4FEseZai84Xlgv
XQxUFGvJitzCIc5EOAnzE5YjEqb8JKG8jH5lnB/j+VikQrcglynG8rdh0mclurvA
eQBp4TBtRh3ubkTufZo177tBtKzgeJ7vxeQZCQUiDQazFlLfkPzV+29SvURVE0uG
gQupdXRkMzKPmKhQ
-----END CERTIFICATE-----
