Certificate:
    Data:
        Version: 3 (0x2)
        Serial Number: 110 (0x6e)
    Signature Algorithm: sha1WithRSAEncryption
        Issuer: C=US, ST=Washington, L=Seattle, O=wolfSSL Inc., OU=Engineering, CN=Server 0 CA/emailAddress=info@wolfssl.com
        Validity
            Not Before: Sep 20 00:22:35 2016 GMT
            Not After : Jun 17 00:22:35 2019 GMT
        Subject: C=US, ST=Washington, L=Seattle, O=wolfSSL Inc., OU=Engineering, CN=Server 0-1 CA/emailAddress=info@wolfssl.com
        Subject Public Key Info:
            Public Key Algorithm: rsaEncryption
                Public-Key: (2048 bit)
                Modulus:
                    00:c0:95:08:e1:57:41:f2:71:6d:b7:d2:45:41:27:
                    01:65:c6:45:ae:f2:bc:24:30:b8:95:ce:2f:4e:d6:
                    f6:1c:88:bc:7c:9f:fb:a8:67:7f:fe:5c:9c:51:75:
                    f7:8a:ca:07:e7:35:2f:8f:e1:bd:7b:c0:2f:7c:ab:
                    64:a8:17:fc:ca:5d:7b:ba:e0:21:e5:72:2e:6f:2e:
                    86:d8:95:73:da:ac:1b:53:b9:5f:3f:d7:19:0d:25:
                    4f:e1:63:63:51:8b:0b:64:3f:ad:43:b8:a5:1c:5c:
                    34:b3:ae:00:a0:63:c5:f6:7f:0b:59:68:78:73:a6:
                    8c:18:a9:02:6d:af:c3:19:01:2e:b8:10:e3:c6:cc:
                    40:b4:69:a3:46:33:69:87:6e:c4:bb:17:a6:f3:e8:
                    dd:ad:73:bc:7b:2f:21:b5:fd:66:51:0c:bd:54:b3:
                    e1:6d:5f:1c:bc:23:73:d1:09:03:89:14:d2:10:b9:
                    64:c3:2a:d0:a1:96:4a:bc:e1:d4:1a:5b:c7:a0:c0:
                    c1:63:78:0f:44:37:30:32:96:80:32:23:95:a1:77:
                    ba:13:d2:97:73:e2:5d:25:c9:6a:0d:c3:39:60:a4:
                    b4:b0:69:42:42:09:e9:d8:08:bc:33:20:b3:58:22:
                    a7:aa:eb:c4:e1:e6:61:83:c5:d2:96:df:d9:d0:4f:
                    ad:d7
                Exponent: 65537 (0x10001)
        X509v3 extensions:
            X509v3 Subject Key Identifier: 
                B3:11:32:C9:92:98:84:E2:C9:F8:D0:3B:6E:03:42:CA:1F:0E:8E:3C
            X509v3 Authority Key Identifier: 
                keyid:B3:11:32:C9:92:98:84:E2:C9:F8:D0:3B:6E:03:42:CA:1F:0E:8E:3C
                DirName:/C=US/ST=Montana/L=Bozeman/O=Sawtooth/OU=Consulting/CN=www.wolfssl.com/emailAddress=info@wolfssl.com
                serial:64

            X509v3 Basic Constraints: 
                CA:TRUE, pathlen:1
            X509v3 Key Usage: 
                Certificate Sign, CRL Sign
    Signature Algorithm: sha1WithRSAEncryption
         22:dd:95:9c:dc:e6:7f:ad:df:55:68:c8:21:f8:84:12:fd:13:
         22:80:2b:ba:1f:da:9d:d2:55:00:a1:22:fc:50:44:6d:0f:ac:
         8a:61:2c:32:c5:63:e1:26:37:10:7c:5e:05:f1:90:0f:21:57:
         b4:61:e0:40:0b:4f:1b:bf:8b:d8:fd:28:d6:55:73:bd:a9:5c:
         5e:61:89:4f:e1:07:b6:5a:78:c5:0c:65:7a:38:11:e7:86:46:
         2a:0c:a5:70:71:aa:16:9c:79:d6:c2:18:4c:b8:fb:86:1a:78:
         70:e5:0a:27:48:2a:d4:14:d7:3f:31:76:33:a0:4b:f9:f8:34:
         2e:c9:06:e4:e2:a0:0c:02:1e:c4:a0:d3:2b:ce:77:0e:b8:31:
         d5:02:66:b1:62:10:5b:63:e2:7f:aa:23:0a:63:d9:33:76:2d:
         88:9b:0f:6a:a2:ab:e8:b7:a4:83:7c:8e:1d:8c:45:d7:90:78:
         5c:3d:41:85:ac:79:ce:6c:fc:36:6b:20:fa:0c:19:a1:2b:91:
         d0:5f:fd:72:86:cb:17:22:02:70:76:ed:61:78:1c:ce:d0:e3:
         17:9c:4d:58:9e:30:d5:c7:33:5b:44:0d:16:5c:ca:a4:67:13:
         3a:18:f8:94:ac:5e:17:a5:c2:2c:11:89:7b:7a:fd:f5:9a:e3:
         19:93:c0:60
-----BEGIN CERTIFICATE-----
MIIEtjCCA56gAwIBAgIBbjANBgkqhkiG9w0BAQUFADCBmDELMAkGA1UEBhMCVVMx
EzARBgNVBAgMCldhc2hpbmd0b24xEDAOBgNVBAcMB1NlYXR0bGUxFTATBgNVBAoM
DHdvbGZTU0wgSW5jLjEUMBIGA1UECwwLRW5naW5lZXJpbmcxFDASBgNVBAMMC1Nl
cnZlciAwIENBMR8wHQYJKoZIhvcNAQkBFhBpbmZvQHdvbGZzc2wuY29tMB4XDTE2
MDkyMDAwMjIzNVoXDTE5MDYxNzAwMjIzNVowgZoxCzAJBgNVBAYTAlVTMRMwEQYD
VQQIDApXYXNoaW5ndG9uMRAwDgYDVQQHDAdTZWF0dGxlMRUwEwYDVQQKDAx3b2xm
U1NMIEluYy4xFDASBgNVBAsMC0VuZ2luZWVyaW5nMRYwFAYDVQQDDA1TZXJ2ZXIg
MC0xIENBMR8wHQYJKoZIhvcNAQkBFhBpbmZvQHdvbGZzc2wuY29tMIIBIjANBgkq
hkiG9w0BAQEFAAOCAQ8AMIIBCgKCAQEAwJUI4VdB8nFtt9JFQScBZcZFrvK8JDC4
lc4vTtb2HIi8fJ/7qGd//lycUXX3isoH5zUvj+G9e8AvfKtkqBf8yl17uuAh5XIu
by6G2JVz2qwbU7lfP9cZDSVP4WNjUYsLZD+tQ7ilHFw0s64AoGPF9n8LWWh4c6aM
GKkCba/DGQEuuBDjxsxAtGmjRjNph27Euxem8+jdrXO8ey8htf1mUQy9VLPhbV8c
vCNz0QkDiRTSELlkwyrQoZZKvOHUGlvHoMDBY3gPRDcwMpaAMiOVoXe6E9KXc+Jd
JclqDcM5YKS0sGlCQgnp2Ai8MyCzWCKnquvE4eZhg8XSlt/Z0E+t1wIDAQABo4IB
BTCCAQEwHQYDVR0OBBYEFLMRMsmSmITiyfjQO24DQsofDo48MIHBBgNVHSMEgbkw
gbaAFLMRMsmSmITiyfjQO24DQsofDo48oYGapIGXMIGUMQswCQYDVQQGEwJVUzEQ
MA4GA1UECAwHTW9udGFuYTEQMA4GA1UEBwwHQm96ZW1hbjERMA8GA1UECgwIU2F3
dG9vdGgxEzARBgNVBAsMCkNvbnN1bHRpbmcxGDAWBgNVBAMMD3d3dy53b2xmc3Ns
LmNvbTEfMB0GCSqGSIb3DQEJARYQaW5mb0B3b2xmc3NsLmNvbYIBZDAPBgNVHRME
CDAGAQH/AgEBMAsGA1UdDwQEAwIBBjANBgkqhkiG9w0BAQUFAAOCAQEAIt2VnNzm
f63fVWjIIfiEEv0TIoAruh/andJVAKEi/FBEbQ+simEsMsVj4SY3EHxeBfGQDyFX
tGHgQAtPG7+L2P0o1lVzvalcXmGJT+EHtlp4xQxlejgR54ZGKgylcHGqFpx51sIY
TLj7hhp4cOUKJ0gq1BTXPzF2M6BL+fg0LskG5OKgDAIexKDTK853Drgx1QJmsWIQ
W2Pif6ojCmPZM3YtiJsPaqKr6Lekg3yOHYxF15B4XD1Bhax5zmz8Nmsg+gwZoSuR
0F/9cobLFyICcHbtYXgcztDjF5xNWJ4w1cczW0QNFlzKpGcTOhj4lKxeF6XCLBGJ
e3r99ZrjGZPAYA==
-----END CERTIFICATE-----
