Certificate Revocation List (CRL):
        Version 2 (0x1)
    Signature Algorithm: sha256WithRSAEncryption
        Issuer: /C=US/ST=Montana/L=Bozeman/O=wolfSSL_2048/OU=Programming-2048/CN=www.wolfssl.com/emailAddress=info@wolfssl.com
        Last Update: Aug 11 20:07:38 2016 GMT
        Next Update: May  8 20:07:38 2019 GMT
        CRL extensions:
            X509v3 CRL Number: 
                3
No Revoked Certificates.
    Signature Algorithm: sha256WithRSAEncryption
         14:85:d5:c8:db:62:74:48:94:5e:dc:52:0f:5e:43:8b:29:83:
         32:e0:7a:4c:5c:76:e3:7e:c1:87:74:40:b2:6f:f8:33:4c:2c:
         32:08:f0:5f:d9:85:b3:20:05:34:5d:15:4d:ba:45:bc:2d:9c:
         ae:40:d0:d8:9a:b3:a1:4f:0b:94:ce:c4:23:c6:bf:a2:f8:a6:
         02:4c:6d:ad:5a:59:b3:83:55:dd:37:91:f6:75:d4:6f:83:5f:
         1c:29:94:cd:01:09:dc:38:d8:6c:c0:9f:1e:76:9d:f9:8f:70:
         0d:48:e5:99:82:90:3a:36:f1:33:17:69:73:8a:ee:a7:22:4c:
         58:93:a1:dc:59:b9:44:8f:88:99:0b:c4:d3:74:aa:02:9a:84:
         36:48:d8:a0:05:73:bc:14:32:1e:76:23:85:c5:94:56:b2:2c:
         61:3b:07:d7:bd:0c:27:f7:d7:23:40:bd:0c:6c:c7:e0:f7:28:
         74:67:98:20:93:72:16:b6:6e:67:3f:9e:c9:34:c5:64:09:bf:
         b1:ab:87:0c:80:b6:1f:89:d8:0e:67:c2:c7:19:df:ee:9f:b2:
         e6:fb:64:3d:82:7a:47:e2:8d:a3:93:1d:29:f6:94:db:83:2f:
         b6:0a:a0:da:77:e3:56:ec:d7:d2:22:3c:88:4d:4a:87:de:b5:
         1c:eb:7b:08
-----BEGIN X509 CRL-----
MIIB+DCB4QIBATANBgkqhkiG9w0BAQsFADCBnjELMAkGA1UEBhMCVVMxEDAOBgNV
BAgMB01vbnRhbmExEDAOBgNVBAcMB0JvemVtYW4xFTATBgNVBAoMDHdvbGZTU0xf
MjA0ODEZMBcGA1UECwwQUHJvZ3JhbW1pbmctMjA0ODEYMBYGA1UEAwwPd3d3Lndv
bGZzc2wuY29tMR8wHQYJKoZIhvcNAQkBFhBpbmZvQHdvbGZzc2wuY29tFw0xNjA4
MTEyMDA3MzhaFw0xOTA1MDgyMDA3MzhaoA4wDDAKBgNVHRQEAwIBAzANBgkqhkiG
9w0BAQsFAAOCAQEAFIXVyNtidEiUXtxSD15DiymDMuB6TFx2437Bh3RAsm/4M0ws
MgjwX9mFsyAFNF0VTbpFvC2crkDQ2JqzoU8LlM7EI8a/ovimAkxtrVpZs4NV3TeR
9nXUb4NfHCmUzQEJ3DjYbMCfHnad+Y9wDUjlmYKQOjbxMxdpc4rupyJMWJOh3Fm5
RI+ImQvE03SqApqENkjYoAVzvBQyHnYjhcWUVrIsYTsH170MJ/fXI0C9DGzH4Pco
dGeYIJNyFrZuZz+eyTTFZAm/sauHDIC2H4nYDmfCxxnf7p+y5vtkPYJ6R+KNo5Md
KfaU24Mvtgqg2nfjVuzX0iI8iE1Kh961HOt7CA==
-----END X509 CRL-----
