Certificate Revocation List (CRL):
        Version 2 (0x1)
    Signature Algorithm: sha256WithRSAEncryption
        Issuer: /C=US/ST=Montana/L=Bozeman/O=Sawtooth/OU=Consulting/CN=www.wolfssl.com/emailAddress=info@wolfssl.com
        Last Update: Aug 11 20:07:38 2016 GMT
        Next Update: May  8 20:07:38 2019 GMT
        CRL extensions:
            X509v3 CRL Number: 
                1
Revoked Certificates:
    Serial Number: 02
        Revocation Date: Aug 11 20:07:38 2016 GMT
    Signature Algorithm: sha256WithRSAEncryption
         35:c6:7f:57:9a:e5:86:5a:15:1a:e2:e5:2b:9f:54:79:2a:58:
         51:a2:12:0c:4e:53:58:eb:99:e3:c2:ee:2b:d7:23:e4:3c:4d:
         0a:ab:ae:71:9b:ce:b1:c1:75:a1:b6:e5:32:5f:10:b0:72:28:
         2e:74:b1:99:dd:47:53:20:f6:9a:83:5c:bd:20:b0:aa:df:32:
         f6:95:54:98:9e:59:96:55:7b:0a:74:be:94:66:44:b7:32:82:
         f0:eb:16:f8:30:86:16:9f:73:43:98:82:b5:5e:ad:58:c0:c8:
         79:da:ad:b1:b4:d7:fb:34:c1:cc:3a:67:af:a4:56:5a:70:5c:
         2d:1f:73:16:78:92:01:06:e3:2c:fb:f1:ba:d5:8f:f9:be:dd:
         e1:4a:ce:de:ca:e6:2d:96:09:24:06:40:9e:10:15:2e:f2:cd:
         85:d6:84:88:db:9c:4a:7b:75:7a:06:0e:40:02:20:60:7e:91:
         f7:92:53:1e:34:7a:ea:ee:df:e7:cd:a8:9e:a6:61:b4:56:50:
         4d:dc:b1:78:0d:86:cf:45:c3:a6:0a:b9:88:2c:56:a7:b1:d3:
         d3:0d:44:aa:93:a4:05:4d:ce:9f:01:b0:c6:1e:e4:ea:6b:92:
         6f:93:dd:98:cf:fb:1d:06:72:ac:d4:99:e7:f2:b4:11:57:bd:
         9d:63:e5:dc
-----BEGIN X509 CRL-----
MIICBDCB7QIBATANBgkqhkiG9w0BAQsFADCBlDELMAkGA1UEBhMCVVMxEDAOBgNV
BAgMB01vbnRhbmExEDAOBgNVBAcMB0JvemVtYW4xETAPBgNVBAoMCFNhd3Rvb3Ro
MRMwEQYDVQQLDApDb25zdWx0aW5nMRgwFgYDVQQDDA93d3cud29sZnNzbC5jb20x
HzAdBgkqhkiG9w0BCQEWEGluZm9Ad29sZnNzbC5jb20XDTE2MDgxMTIwMDczOFoX
DTE5MDUwODIwMDczOFowFDASAgECFw0xNjA4MTEyMDA3MzhaoA4wDDAKBgNVHRQE
AwIBATANBgkqhkiG9w0BAQsFAAOCAQEANcZ/V5rlhloVGuLlK59UeSpYUaISDE5T
WOuZ48LuK9cj5DxNCquucZvOscF1obblMl8QsHIoLnSxmd1HUyD2moNcvSCwqt8y
9pVUmJ5ZllV7CnS+lGZEtzKC8OsW+DCGFp9zQ5iCtV6tWMDIedqtsbTX+zTBzDpn
r6RWWnBcLR9zFniSAQbjLPvxutWP+b7d4UrO3srmLZYJJAZAnhAVLvLNhdaEiNuc
Snt1egYOQAIgYH6R95JTHjR66u7f582onqZhtFZQTdyxeA2Gz0XDpgq5iCxWp7HT
0w1EqpOkBU3OnwGwxh7k6muSb5PdmM/7HQZyrNSZ5/K0EVe9nWPl3A==
-----END X509 CRL-----
