Certificate:
    Data:
        Version: 3 (0x2)
        Serial Number: 109 (0x6d)
    Signature Algorithm: sha1WithRSAEncryption
        Issuer: C=US, ST=Washington, L=Seattle, O=wolfSSL Inc., OU=Engineering, CN=Server 128 CA/emailAddress=info@wolfssl.com
        Validity
            Not Before: Sep 20 00:10:39 2016 GMT
            Not After : Jun 17 00:10:39 2019 GMT
        Subject: C=US, ST=Washington, L=Seattle, O=wolfSSL Inc., OU=Engineering, CN=Server 128/emailAddress=info@wolfssl.com
        Subject Public Key Info:
            Public Key Algorithm: rsaEncryption
                Public-Key: (2048 bit)
                Modulus:
                    00:c0:95:08:e1:57:41:f2:71:6d:b7:d2:45:41:27:
                    01:65:c6:45:ae:f2:bc:24:30:b8:95:ce:2f:4e:d6:
                    f6:1c:88:bc:7c:9f:fb:a8:67:7f:fe:5c:9c:51:75:
                    f7:8a:ca:07:e7:35:2f:8f:e1:bd:7b:c0:2f:7c:ab:
                    64:a8:17:fc:ca:5d:7b:ba:e0:21:e5:72:2e:6f:2e:
                    86:d8:95:73:da:ac:1b:53:b9:5f:3f:d7:19:0d:25:
                    4f:e1:63:63:51:8b:0b:64:3f:ad:43:b8:a5:1c:5c:
                    34:b3:ae:00:a0:63:c5:f6:7f:0b:59:68:78:73:a6:
                    8c:18:a9:02:6d:af:c3:19:01:2e:b8:10:e3:c6:cc:
                    40:b4:69:a3:46:33:69:87:6e:c4:bb:17:a6:f3:e8:
                    dd:ad:73:bc:7b:2f:21:b5:fd:66:51:0c:bd:54:b3:
                    e1:6d:5f:1c:bc:23:73:d1:09:03:89:14:d2:10:b9:
                    64:c3:2a:d0:a1:96:4a:bc:e1:d4:1a:5b:c7:a0:c0:
                    c1:63:78:0f:44:37:30:32:96:80:32:23:95:a1:77:
                    ba:13:d2:97:73:e2:5d:25:c9:6a:0d:c3:39:60:a4:
                    b4:b0:69:42:42:09:e9:d8:08:bc:33:20:b3:58:22:
                    a7:aa:eb:c4:e1:e6:61:83:c5:d2:96:df:d9:d0:4f:
                    ad:d7
                Exponent: 65537 (0x10001)
        X509v3 extensions:
            X509v3 Subject Key Identifier: 
                B3:11:32:C9:92:98:84:E2:C9:F8:D0:3B:6E:03:42:CA:1F:0E:8E:3C
            X509v3 Authority Key Identifier: 
                keyid:B3:11:32:C9:92:98:84:E2:C9:F8:D0:3B:6E:03:42:CA:1F:0E:8E:3C
                DirName:/C=US/ST=Montana/L=Bozeman/O=Sawtooth/OU=Consulting/CN=www.wolfssl.com/emailAddress=info@wolfssl.com
                serial:6C

            X509v3 Basic Constraints: 
                CA:FALSE
    Signature Algorithm: sha1WithRSAEncryption
         b5:8d:6e:c1:2f:26:fb:25:f5:48:99:97:42:b0:20:22:73:3a:
         37:96:f4:f5:33:ae:10:10:51:2c:8b:30:2e:de:27:0d:f5:68:
         b8:fd:4c:28:59:5a:ec:e5:31:7e:83:97:37:96:26:09:88:d1:
         19:46:48:74:59:d1:4e:4a:f6:bf:f5:ea:1b:3b:99:d4:aa:7c:
         46:60:f5:38:43:a2:2b:a7:d9:b5:30:cb:a5:2b:5a:de:68:a5:
         9f:8c:3b:d6:6e:b2:0a:6f:3f:df:88:fe:70:83:d2:21:58:c0:
         53:89:da:a0:33:9d:1d:f7:a1:88:d3:18:ac:9c:2a:18:45:68:
         37:af:46:85:1a:1c:4c:bf:8c:b0:1a:c6:3e:3e:98:2e:9e:26:
         6d:1c:8a:db:15:d2:5e:28:48:cc:07:9d:1d:e1:7d:89:b5:7a:
         13:b1:5a:b3:03:3f:77:c4:21:7b:d2:2a:96:24:3c:d9:65:76:
         42:e5:cb:20:30:d3:17:bc:f9:8d:dd:e4:63:ae:2a:13:0f:3c:
         df:c5:86:dd:d4:db:79:50:6f:88:b8:58:bd:6f:09:2b:c5:21:
         bd:1e:a0:9c:e8:97:6b:cb:c8:9a:8e:09:ac:8e:5a:72:ed:d7:
         b0:d0:7f:85:b0:91:73:e4:2b:28:e1:a1:6d:3f:2a:8f:ea:d1:
         df:57:64:25
-----BEGIN CERTIFICATE-----
MIIEoDCCA4igAwIBAgIBbTANBgkqhkiG9w0BAQUFADCBmjELMAkGA1UEBhMCVVMx
EzARBgNVBAgMCldhc2hpbmd0b24xEDAOBgNVBAcMB1NlYXR0bGUxFTATBgNVBAoM
DHdvbGZTU0wgSW5jLjEUMBIGA1UECwwLRW5naW5lZXJpbmcxFjAUBgNVBAMMDVNl
cnZlciAxMjggQ0ExHzAdBgkqhkiG9w0BCQEWEGluZm9Ad29sZnNzbC5jb20wHhcN
MTYwOTIwMDAxMDM5WhcNMTkwNjE3MDAxMDM5WjCBlzELMAkGA1UEBhMCVVMxEzAR
BgNVBAgMCldhc2hpbmd0b24xEDAOBgNVBAcMB1NlYXR0bGUxFTATBgNVBAoMDHdv
bGZTU0wgSW5jLjEUMBIGA1UECwwLRW5naW5lZXJpbmcxEzARBgNVBAMMClNlcnZl
ciAxMjgxHzAdBgkqhkiG9w0BCQEWEGluZm9Ad29sZnNzbC5jb20wggEiMA0GCSqG
SIb3DQEBAQUAA4IBDwAwggEKAoIBAQDAlQjhV0HycW230kVBJwFlxkWu8rwkMLiV
zi9O1vYciLx8n/uoZ3/+XJxRdfeKygfnNS+P4b17wC98q2SoF/zKXXu64CHlci5v
LobYlXParBtTuV8/1xkNJU/hY2NRiwtkP61DuKUcXDSzrgCgY8X2fwtZaHhzpowY
qQJtr8MZAS64EOPGzEC0aaNGM2mHbsS7F6bz6N2tc7x7LyG1/WZRDL1Us+FtXxy8
I3PRCQOJFNIQuWTDKtChlkq84dQaW8egwMFjeA9ENzAyloAyI5Whd7oT0pdz4l0l
yWoNwzlgpLSwaUJCCenYCLwzILNYIqeq68Th5mGDxdKW39nQT63XAgMBAAGjgfEw
ge4wHQYDVR0OBBYEFLMRMsmSmITiyfjQO24DQsofDo48MIHBBgNVHSMEgbkwgbaA
FLMRMsmSmITiyfjQO24DQsofDo48oYGapIGXMIGUMQswCQYDVQQGEwJVUzEQMA4G
A1UECAwHTW9udGFuYTEQMA4GA1UEBwwHQm96ZW1hbjERMA8GA1UECgwIU2F3dG9v
dGgxEzARBgNVBAsMCkNvbnN1bHRpbmcxGDAWBgNVBAMMD3d3dy53b2xmc3NsLmNv
bTEfMB0GCSqGSIb3DQEJARYQaW5mb0B3b2xmc3NsLmNvbYIBbDAJBgNVHRMEAjAA
MA0GCSqGSIb3DQEBBQUAA4IBAQC1jW7BLyb7JfVImZdCsCAiczo3lvT1M64QEFEs
izAu3icN9Wi4/UwoWVrs5TF+g5c3liYJiNEZRkh0WdFOSva/9eobO5nUqnxGYPU4
Q6Irp9m1MMulK1reaKWfjDvWbrIKbz/fiP5wg9IhWMBTidqgM50d96GI0xisnCoY
RWg3r0aFGhxMv4ywGsY+PpguniZtHIrbFdJeKEjMB50d4X2JtXoTsVqzAz93xCF7
0iqWJDzZZXZC5csgMNMXvPmN3eRjrioTDzzfxYbd1Nt5UG+IuFi9bwkrxSG9HqCc
6Jdry8iajgmsjlpy7dew0H+FsJFz5Cso4aFtPyqP6tHfV2Ql
-----END CERTIFICATE-----
Certificate:
    Data:
        Version: 3 (0x2)
        Serial Number: 108 (0x6c)
    Signature Algorithm: sha1WithRSAEncryption
        Issuer: C=US, ST=Montana, L=Bozeman, O=Sawtooth, OU=Consulting, CN=www.wolfssl.com/emailAddress=info@wolfssl.com
        Validity
            Not Before: Sep 19 23:25:55 2016 GMT
            Not After : Jun 16 23:25:55 2019 GMT
        Subject: C=US, ST=Washington, L=Seattle, O=wolfSSL Inc., OU=Engineering, CN=Server 128 CA/emailAddress=info@wolfssl.com
        Subject Public Key Info:
            Public Key Algorithm: rsaEncryption
                Public-Key: (2048 bit)
                Modulus:
                    00:c0:95:08:e1:57:41:f2:71:6d:b7:d2:45:41:27:
                    01:65:c6:45:ae:f2:bc:24:30:b8:95:ce:2f:4e:d6:
                    f6:1c:88:bc:7c:9f:fb:a8:67:7f:fe:5c:9c:51:75:
                    f7:8a:ca:07:e7:35:2f:8f:e1:bd:7b:c0:2f:7c:ab:
                    64:a8:17:fc:ca:5d:7b:ba:e0:21:e5:72:2e:6f:2e:
                    86:d8:95:73:da:ac:1b:53:b9:5f:3f:d7:19:0d:25:
                    4f:e1:63:63:51:8b:0b:64:3f:ad:43:b8:a5:1c:5c:
                    34:b3:ae:00:a0:63:c5:f6:7f:0b:59:68:78:73:a6:
                    8c:18:a9:02:6d:af:c3:19:01:2e:b8:10:e3:c6:cc:
                    40:b4:69:a3:46:33:69:87:6e:c4:bb:17:a6:f3:e8:
                    dd:ad:73:bc:7b:2f:21:b5:fd:66:51:0c:bd:54:b3:
                    e1:6d:5f:1c:bc:23:73:d1:09:03:89:14:d2:10:b9:
                    64:c3:2a:d0:a1:96:4a:bc:e1:d4:1a:5b:c7:a0:c0:
                    c1:63:78:0f:44:37:30:32:96:80:32:23:95:a1:77:
                    ba:13:d2:97:73:e2:5d:25:c9:6a:0d:c3:39:60:a4:
                    b4:b0:69:42:42:09:e9:d8:08:bc:33:20:b3:58:22:
                    a7:aa:eb:c4:e1:e6:61:83:c5:d2:96:df:d9:d0:4f:
                    ad:d7
                Exponent: 65537 (0x10001)
        X509v3 extensions:
            X509v3 Subject Key Identifier: 
                B3:11:32:C9:92:98:84:E2:C9:F8:D0:3B:6E:03:42:CA:1F:0E:8E:3C
            X509v3 Authority Key Identifier: 
                keyid:27:8E:67:11:74:C3:26:1D:3F:ED:33:63:B3:A4:D8:1D:30:E5:E8:D5
                DirName:/C=US/ST=Montana/L=Bozeman/O=Sawtooth/OU=Consulting/CN=www.wolfssl.com/emailAddress=info@wolfssl.com
                serial:B7:B6:90:33:66:1B:6B:23

            X509v3 Basic Constraints: 
                CA:TRUE, pathlen:128
            X509v3 Key Usage: 
                Certificate Sign, CRL Sign
    Signature Algorithm: sha1WithRSAEncryption
         2c:4e:94:b0:f6:75:cc:c4:9e:b5:68:56:f6:af:57:00:aa:74:
         99:59:6e:a8:de:d1:31:79:8a:b2:0c:42:d1:84:42:e4:89:7a:
         65:d1:cb:3f:fe:10:0c:ab:3a:89:a2:34:67:2d:43:cd:c1:09:
         80:b5:79:8c:0c:d8:2e:aa:c9:4c:89:59:0b:4a:1f:cd:f3:7c:
         c1:7b:9e:26:7e:ea:c6:cd:de:b5:74:10:54:ee:0f:8f:85:5e:
         1a:9d:61:59:80:ac:f1:b8:be:a3:7e:57:41:62:6f:c4:30:18:
         92:cb:75:a2:fa:97:b7:90:db:ab:4f:b3:0d:05:cc:a9:e6:b8:
         b2:57:2d:b8:b6:85:bf:98:7d:43:d1:82:11:3e:ca:8d:2f:b0:
         5f:0d:d2:29:70:30:02:08:3a:38:bc:c9:e9:6c:59:7f:17:7b:
         97:9a:96:9a:f4:bf:6e:e3:44:70:ac:95:f8:5a:08:74:b4:5f:
         35:17:5e:da:77:3b:49:22:1f:9e:1d:1f:da:30:3f:69:6a:61:
         57:8b:59:b0:4b:50:c2:22:bd:6b:79:b3:a4:7b:11:00:34:cf:
         a9:fc:ad:99:a0:33:5c:1e:45:ab:d8:a7:71:11:c6:3a:f4:cb:
         b5:67:85:0d:34:46:fa:f0:76:4b:51:12:6b:3a:fd:25:30:f6:
         65:5a:61:ef
-----BEGIN CERTIFICATE-----
MIIEuzCCA6OgAwIBAgIBbDANBgkqhkiG9w0BAQUFADCBlDELMAkGA1UEBhMCVVMx
EDAOBgNVBAgMB01vbnRhbmExEDAOBgNVBAcMB0JvemVtYW4xETAPBgNVBAoMCFNh
d3Rvb3RoMRMwEQYDVQQLDApDb25zdWx0aW5nMRgwFgYDVQQDDA93d3cud29sZnNz
bC5jb20xHzAdBgkqhkiG9w0BCQEWEGluZm9Ad29sZnNzbC5jb20wHhcNMTYwOTE5
MjMyNTU1WhcNMTkwNjE2MjMyNTU1WjCBmjELMAkGA1UEBhMCVVMxEzARBgNVBAgM
Cldhc2hpbmd0b24xEDAOBgNVBAcMB1NlYXR0bGUxFTATBgNVBAoMDHdvbGZTU0wg
SW5jLjEUMBIGA1UECwwLRW5naW5lZXJpbmcxFjAUBgNVBAMMDVNlcnZlciAxMjgg
Q0ExHzAdBgkqhkiG9w0BCQEWEGluZm9Ad29sZnNzbC5jb20wggEiMA0GCSqGSIb3
DQEBAQUAA4IBDwAwggEKAoIBAQDAlQjhV0HycW230kVBJwFlxkWu8rwkMLiVzi9O
1vYciLx8n/uoZ3/+XJxRdfeKygfnNS+P4b17wC98q2SoF/zKXXu64CHlci5vLobY
lXParBtTuV8/1xkNJU/hY2NRiwtkP61DuKUcXDSzrgCgY8X2fwtZaHhzpowYqQJt
r8MZAS64EOPGzEC0aaNGM2mHbsS7F6bz6N2tc7x7LyG1/WZRDL1Us+FtXxy8I3PR
CQOJFNIQuWTDKtChlkq84dQaW8egwMFjeA9ENzAyloAyI5Whd7oT0pdz4l0lyWoN
wzlgpLSwaUJCCenYCLwzILNYIqeq68Th5mGDxdKW39nQT63XAgMBAAGjggEOMIIB
CjAdBgNVHQ4EFgQUsxEyyZKYhOLJ+NA7bgNCyh8OjjwwgckGA1UdIwSBwTCBvoAU
J45nEXTDJh0/7TNjs6TYHTDl6NWhgZqkgZcwgZQxCzAJBgNVBAYTAlVTMRAwDgYD
VQQIDAdNb250YW5hMRAwDgYDVQQHDAdCb3plbWFuMREwDwYDVQQKDAhTYXd0b290
aDETMBEGA1UECwwKQ29uc3VsdGluZzEYMBYGA1UEAwwPd3d3LndvbGZzc2wuY29t
MR8wHQYJKoZIhvcNAQkBFhBpbmZvQHdvbGZzc2wuY29tggkAt7aQM2YbayMwEAYD
VR0TBAkwBwEB/wICAIAwCwYDVR0PBAQDAgEGMA0GCSqGSIb3DQEBBQUAA4IBAQAs
TpSw9nXMxJ61aFb2r1cAqnSZWW6o3tExeYqyDELRhELkiXpl0cs//hAMqzqJojRn
LUPNwQmAtXmMDNguqslMiVkLSh/N83zBe54mfurGzd61dBBU7g+PhV4anWFZgKzx
uL6jfldBYm/EMBiSy3Wi+pe3kNurT7MNBcyp5riyVy24toW/mH1D0YIRPsqNL7Bf
DdIpcDACCDo4vMnpbFl/F3uXmpaa9L9u40RwrJX4Wgh0tF81F17adztJIh+eHR/a
MD9pamFXi1mwS1DCIr1rebOkexEANM+p/K2ZoDNcHkWr2KdxEcY69Mu1Z4UNNEb6
8HZLURJrOv0lMPZlWmHv
-----END CERTIFICATE-----
