Certificate:
    Data:
        Version: 3 (0x2)
        Serial Number: 102 (0x66)
    Signature Algorithm: sha1WithRSAEncryption
        Issuer: C=US, ST=Montana, L=Bozeman, O=Sawtooth, OU=Consulting, CN=www.wolfssl.com/emailAddress=info@wolfssl.com
        Validity
            Not Before: Sep 19 23:16:34 2016 GMT
            Not After : Jun 16 23:16:34 2019 GMT
        Subject: C=US, ST=Washington, L=Seattle, O=wolfSSL Inc., OU=Engineering, CN=Server 1 CA/emailAddress=info@wolfssl.com
        Subject Public Key Info:
            Public Key Algorithm: rsaEncryption
                Public-Key: (2048 bit)
                Modulus:
                    00:c0:95:08:e1:57:41:f2:71:6d:b7:d2:45:41:27:
                    01:65:c6:45:ae:f2:bc:24:30:b8:95:ce:2f:4e:d6:
                    f6:1c:88:bc:7c:9f:fb:a8:67:7f:fe:5c:9c:51:75:
                    f7:8a:ca:07:e7:35:2f:8f:e1:bd:7b:c0:2f:7c:ab:
                    64:a8:17:fc:ca:5d:7b:ba:e0:21:e5:72:2e:6f:2e:
                    86:d8:95:73:da:ac:1b:53:b9:5f:3f:d7:19:0d:25:
                    4f:e1:63:63:51:8b:0b:64:3f:ad:43:b8:a5:1c:5c:
                    34:b3:ae:00:a0:63:c5:f6:7f:0b:59:68:78:73:a6:
                    8c:18:a9:02:6d:af:c3:19:01:2e:b8:10:e3:c6:cc:
                    40:b4:69:a3:46:33:69:87:6e:c4:bb:17:a6:f3:e8:
                    dd:ad:73:bc:7b:2f:21:b5:fd:66:51:0c:bd:54:b3:
                    e1:6d:5f:1c:bc:23:73:d1:09:03:89:14:d2:10:b9:
                    64:c3:2a:d0:a1:96:4a:bc:e1:d4:1a:5b:c7:a0:c0:
                    c1:63:78:0f:44:37:30:32:96:80:32:23:95:a1:77:
                    ba:13:d2:97:73:e2:5d:25:c9:6a:0d:c3:39:60:a4:
                    b4:b0:69:42:42:09:e9:d8:08:bc:33:20:b3:58:22:
                    a7:aa:eb:c4:e1:e6:61:83:c5:d2:96:df:d9:d0:4f:
                    ad:d7
                Exponent: 65537 (0x10001)
        X509v3 extensions:
            X509v3 Subject Key Identifier: 
                B3:11:32:C9:92:98:84:E2:C9:F8:D0:3B:6E:03:42:CA:1F:0E:8E:3C
            X509v3 Authority Key Identifier: 
                keyid:27:8E:67:11:74:C3:26:1D:3F:ED:33:63:B3:A4:D8:1D:30:E5:E8:D5
                DirName:/C=US/ST=Montana/L=Bozeman/O=Sawtooth/OU=Consulting/CN=www.wolfssl.com/emailAddress=info@wolfssl.com
                serial:B7:B6:90:33:66:1B:6B:23

            X509v3 Basic Constraints: 
                CA:TRUE, pathlen:1
            X509v3 Key Usage: 
                Certificate Sign, CRL Sign
    Signature Algorithm: sha1WithRSAEncryption
         83:fd:d4:aa:5d:ba:bd:55:4a:76:80:0b:7b:fb:ac:61:46:e5:
         e7:0d:2c:2b:85:d3:6a:af:40:4c:f1:51:2b:7d:8b:52:ce:77:
         4e:73:39:b2:77:79:95:a6:49:b9:8c:c3:99:8d:d5:71:f4:33:
         ca:dc:5a:81:7a:b3:ec:1e:97:ee:c8:b8:c7:ec:7e:91:74:5c:
         0a:78:e3:db:a4:6f:90:69:4c:4a:a8:4c:cd:96:f3:8e:94:31:
         86:48:b4:77:0a:c6:ee:8d:43:c9:2e:11:86:4c:0d:67:e0:8b:
         4c:d2:84:9d:18:88:ef:93:34:bb:69:93:c0:96:a0:d1:4f:b7:
         7e:a8:05:99:09:8e:39:66:13:8d:91:fe:05:12:c7:99:6a:2f:
         38:5e:58:2f:5d:0c:54:14:6b:c9:8a:dc:c2:21:ce:44:38:09:
         f3:13:96:23:12:a6:fc:24:a1:bc:8c:7e:65:9c:1f:e3:f9:58:
         a4:42:b7:20:97:29:c6:f2:b7:61:d2:67:25:ba:bb:c0:79:00:
         69:e1:30:6d:46:1d:ee:6e:44:ee:7d:9a:35:ef:bb:41:b4:ac:
         e0:78:9e:ef:c5:e4:19:09:05:22:0d:06:b3:16:52:df:90:fc:
         d5:fb:6f:52:bd:44:55:13:4b:86:81:0b:a9:75:74:64:33:32:
         8f:98:a8:50
-----BEGIN CERTIFICATE-----
MIIEuDCCA6CgAwIBAgIBZjANBgkqhkiG9w0BAQUFADCBlDELMAkGA1UEBhMCVVMx
EDAOBgNVBAgMB01vbnRhbmExEDAOBgNVBAcMB0JvemVtYW4xETAPBgNVBAoMCFNh
d3Rvb3RoMRMwEQYDVQQLDApDb25zdWx0aW5nMRgwFgYDVQQDDA93d3cud29sZnNz
bC5jb20xHzAdBgkqhkiG9w0BCQEWEGluZm9Ad29sZnNzbC5jb20wHhcNMTYwOTE5
MjMxNjM0WhcNMTkwNjE2MjMxNjM0WjCBmDELMAkGA1UEBhMCVVMxEzARBgNVBAgM
Cldhc2hpbmd0b24xEDAOBgNVBAcMB1NlYXR0bGUxFTATBgNVBAoMDHdvbGZTU0wg
SW5jLjEUMBIGA1UECwwLRW5naW5lZXJpbmcxFDASBgNVBAMMC1NlcnZlciAxIENB
MR8wHQYJKoZIhvcNAQkBFhBpbmZvQHdvbGZzc2wuY29tMIIBIjANBgkqhkiG9w0B
AQEFAAOCAQ8AMIIBCgKCAQEAwJUI4VdB8nFtt9JFQScBZcZFrvK8JDC4lc4vTtb2
HIi8fJ/7qGd//lycUXX3isoH5zUvj+G9e8AvfKtkqBf8yl17uuAh5XIuby6G2JVz
2qwbU7lfP9cZDSVP4WNjUYsLZD+tQ7ilHFw0s64AoGPF9n8LWWh4c6aMGKkCba/D
GQEuuBDjxsxAtGmjRjNph27Euxem8+jdrXO8ey8htf1mUQy9VLPhbV8cvCNz0QkD
iRTSELlkwyrQoZZKvOHUGlvHoMDBY3gPRDcwMpaAMiOVoXe6E9KXc+JdJclqDcM5
YKS0sGlCQgnp2Ai8MyCzWCKnquvE4eZhg8XSlt/Z0E+t1wIDAQABo4IBDTCCAQkw
HQYDVR0OBBYEFLMRMsmSmITiyfjQO24DQsofDo48MIHJBgNVHSMEgcEwgb6AFCeO
ZxF0wyYdP+0zY7Ok2B0w5ejVoYGapIGXMIGUMQswCQYDVQQGEwJVUzEQMA4GA1UE
CAwHTW9udGFuYTEQMA4GA1UEBwwHQm96ZW1hbjERMA8GA1UECgwIU2F3dG9vdGgx
EzARBgNVBAsMCkNvbnN1bHRpbmcxGDAWBgNVBAMMD3d3dy53b2xmc3NsLmNvbTEf
MB0GCSqGSIb3DQEJARYQaW5mb0B3b2xmc3NsLmNvbYIJALe2kDNmG2sjMA8GA1Ud
EwQIMAYBAf8CAQEwCwYDVR0PBAQDAgEGMA0GCSqGSIb3DQEBBQUAA4IBAQCD/dSq
Xbq9VUp2gAt7+6xhRuXnDSwrhdNqr0BM8VErfYtSzndOczmyd3mVpkm5jMOZjdVx
9DPK3FqBerPsHpfuyLjH7H6RdFwKeOPbpG+QaUxKqEzNlvOOlDGGSLR3CsbujUPJ
LhGGTA1n4ItM0oSdGIjvkzS7aZPAlqDRT7d+qAWZCY45ZhONkf4FEseZai84Xlgv
XQxUFGvJitzCIc5EOAnzE5YjEqb8JKG8jH5lnB/j+VikQrcglynG8rdh0mclurvA
eQBp4TBtRh3ubkTufZo177tBtKzgeJ7vxeQZCQUiDQazFlLfkPzV+29SvURVE0uG
gQupdXRkMzKPmKhQ
-----END CERTIFICATE-----
