Certificate:
    Data:
        Version: 3 (0x2)
        Serial Number: 105 (0x69)
    Signature Algorithm: sha1WithRSAEncryption
        Issuer: C=US, ST=Washington, L=Seattle, O=wolfSSL Inc., OU=Engineering, CN=Server 1 CA/emailAddress=info@wolfssl.com
        Validity
            Not Before: Sep 20 00:06:27 2016 GMT
            Not After : Jun 17 00:06:27 2019 GMT
        Subject: C=US, ST=Washington, L=Seattle, O=wolfSSL Inc., OU=Engineering, CN=Server 1/emailAddress=info@wolfssl.com
        Subject Public Key Info:
            Public Key Algorithm: rsaEncryption
                Public-Key: (2048 bit)
                Modulus:
                    00:c0:95:08:e1:57:41:f2:71:6d:b7:d2:45:41:27:
                    01:65:c6:45:ae:f2:bc:24:30:b8:95:ce:2f:4e:d6:
                    f6:1c:88:bc:7c:9f:fb:a8:67:7f:fe:5c:9c:51:75:
                    f7:8a:ca:07:e7:35:2f:8f:e1:bd:7b:c0:2f:7c:ab:
                    64:a8:17:fc:ca:5d:7b:ba:e0:21:e5:72:2e:6f:2e:
                    86:d8:95:73:da:ac:1b:53:b9:5f:3f:d7:19:0d:25:
                    4f:e1:63:63:51:8b:0b:64:3f:ad:43:b8:a5:1c:5c:
                    34:b3:ae:00:a0:63:c5:f6:7f:0b:59:68:78:73:a6:
                    8c:18:a9:02:6d:af:c3:19:01:2e:b8:10:e3:c6:cc:
                    40:b4:69:a3:46:33:69:87:6e:c4:bb:17:a6:f3:e8:
                    dd:ad:73:bc:7b:2f:21:b5:fd:66:51:0c:bd:54:b3:
                    e1:6d:5f:1c:bc:23:73:d1:09:03:89:14:d2:10:b9:
                    64:c3:2a:d0:a1:96:4a:bc:e1:d4:1a:5b:c7:a0:c0:
                    c1:63:78:0f:44:37:30:32:96:80:32:23:95:a1:77:
                    ba:13:d2:97:73:e2:5d:25:c9:6a:0d:c3:39:60:a4:
                    b4:b0:69:42:42:09:e9:d8:08:bc:33:20:b3:58:22:
                    a7:aa:eb:c4:e1:e6:61:83:c5:d2:96:df:d9:d0:4f:
                    ad:d7
                Exponent: 65537 (0x10001)
        X509v3 extensions:
            X509v3 Subject Key Identifier: 
                B3:11:32:C9:92:98:84:E2:C9:F8:D0:3B:6E:03:42:CA:1F:0E:8E:3C
            X509v3 Authority Key Identifier: 
                keyid:B3:11:32:C9:92:98:84:E2:C9:F8:D0:3B:6E:03:42:CA:1F:0E:8E:3C
                DirName:/C=US/ST=Montana/L=Bozeman/O=Sawtooth/OU=Consulting/CN=www.wolfssl.com/emailAddress=info@wolfssl.com
                serial:66

            X509v3 Basic Constraints: 
                CA:FALSE
    Signature Algorithm: sha1WithRSAEncryption
         13:f9:04:1c:01:40:c5:1c:e9:51:fc:95:da:cb:d1:44:9f:25:
         63:e8:85:f7:85:78:f1:ac:01:2d:25:34:16:96:62:a8:5a:fd:
         41:a2:2a:60:b1:c3:97:92:59:0d:ba:2c:74:ae:a5:ff:ae:3d:
         22:99:1e:ca:f9:89:4e:7c:c1:65:00:0e:84:61:3f:2d:5f:47:
         7f:a9:90:bf:fa:83:64:55:2c:0c:ec:34:92:59:07:b0:86:9d:
         66:a4:d4:16:82:e1:a8:ab:d1:12:00:b2:a4:af:c7:69:c4:54:
         0b:bb:4f:64:9b:77:94:ed:5d:aa:42:70:4e:7c:5f:ae:46:91:
         17:95:0b:27:b3:fd:28:87:34:8c:a8:4e:7d:07:9e:c1:d4:fd:
         6b:e5:c5:a9:ca:c3:24:35:26:b5:7e:aa:11:78:f4:fa:c7:66:
         59:cd:58:8f:13:7a:cf:00:8d:ba:75:8d:0d:ed:ca:ef:70:93:
         d7:8c:d9:a4:c0:4b:b1:00:b3:da:5f:71:a6:6a:4d:3b:40:36:
         76:12:75:45:50:a1:32:ca:14:76:9d:d8:3d:92:7e:80:e1:d0:
         24:c3:a1:56:77:06:a6:d8:d3:f3:18:c1:69:d4:e3:4d:95:2b:
         05:00:1b:e5:2a:a8:ca:69:01:7e:c4:c8:e5:e5:09:b5:3b:65:
         73:5f:ba:46
-----BEGIN CERTIFICATE-----
MIIEnDCCA4SgAwIBAgIBaTANBgkqhkiG9w0BAQUFADCBmDELMAkGA1UEBhMCVVMx
EzARBgNVBAgMCldhc2hpbmd0b24xEDAOBgNVBAcMB1NlYXR0bGUxFTATBgNVBAoM
DHdvbGZTU0wgSW5jLjEUMBIGA1UECwwLRW5naW5lZXJpbmcxFDASBgNVBAMMC1Nl
cnZlciAxIENBMR8wHQYJKoZIhvcNAQkBFhBpbmZvQHdvbGZzc2wuY29tMB4XDTE2
MDkyMDAwMDYyN1oXDTE5MDYxNzAwMDYyN1owgZUxCzAJBgNVBAYTAlVTMRMwEQYD
VQQIDApXYXNoaW5ndG9uMRAwDgYDVQQHDAdTZWF0dGxlMRUwEwYDVQQKDAx3b2xm
U1NMIEluYy4xFDASBgNVBAsMC0VuZ2luZWVyaW5nMREwDwYDVQQDDAhTZXJ2ZXIg
MTEfMB0GCSqGSIb3DQEJARYQaW5mb0B3b2xmc3NsLmNvbTCCASIwDQYJKoZIhvcN
AQEBBQADggEPADCCAQoCggEBAMCVCOFXQfJxbbfSRUEnAWXGRa7yvCQwuJXOL07W
9hyIvHyf+6hnf/5cnFF194rKB+c1L4/hvXvAL3yrZKgX/Mpde7rgIeVyLm8uhtiV
c9qsG1O5Xz/XGQ0lT+FjY1GLC2Q/rUO4pRxcNLOuAKBjxfZ/C1loeHOmjBipAm2v
wxkBLrgQ48bMQLRpo0YzaYduxLsXpvPo3a1zvHsvIbX9ZlEMvVSz4W1fHLwjc9EJ
A4kU0hC5ZMMq0KGWSrzh1Bpbx6DAwWN4D0Q3MDKWgDIjlaF3uhPSl3PiXSXJag3D
OWCktLBpQkIJ6dgIvDMgs1gip6rrxOHmYYPF0pbf2dBPrdcCAwEAAaOB8TCB7jAd
BgNVHQ4EFgQUsxEyyZKYhOLJ+NA7bgNCyh8OjjwwgcEGA1UdIwSBuTCBtoAUsxEy
yZKYhOLJ+NA7bgNCyh8OjjyhgZqkgZcwgZQxCzAJBgNVBAYTAlVTMRAwDgYDVQQI
DAdNb250YW5hMRAwDgYDVQQHDAdCb3plbWFuMREwDwYDVQQKDAhTYXd0b290aDET
MBEGA1UECwwKQ29uc3VsdGluZzEYMBYGA1UEAwwPd3d3LndvbGZzc2wuY29tMR8w
HQYJKoZIhvcNAQkBFhBpbmZvQHdvbGZzc2wuY29tggFmMAkGA1UdEwQCMAAwDQYJ
KoZIhvcNAQEFBQADggEBABP5BBwBQMUc6VH8ldrL0USfJWPohfeFePGsAS0lNBaW
Yqha/UGiKmCxw5eSWQ26LHSupf+uPSKZHsr5iU58wWUADoRhPy1fR3+pkL/6g2RV
LAzsNJJZB7CGnWak1BaC4air0RIAsqSvx2nEVAu7T2Sbd5TtXapCcE58X65GkReV
Cyez/SiHNIyoTn0HnsHU/WvlxanKwyQ1JrV+qhF49PrHZlnNWI8Tes8Ajbp1jQ3t
yu9wk9eM2aTAS7EAs9pfcaZqTTtANnYSdUVQoTLKFHad2D2SfoDh0CTDoVZ3BqbY
0/MYwWnU402VKwUAG+UqqMppAX7EyOXlCbU7ZXNfukY=
-----END CERTIFICATE-----
