Certificate:
    Data:
        Version: 3 (0x2)
        Serial Number: 103 (0x67)
    Signature Algorithm: sha1WithRSAEncryption
        Issuer: C=US, ST=Washington, L=Seattle, O=wolfSSL Inc., OU=Engineering, CN=Server 1 CA/emailAddress=info@wolfssl.com
        Validity
            Not Before: Sep 20 21:23:18 2016 GMT
            Not After : Jun 16 21:23:18 2019 GMT
        Subject: C=US, ST=Washington, L=Seattle, O=wolfSSL Inc., OU=Engineering, CN=Server 1-0 CA/emailAddress=info@wolfssl.com
        Subject Public Key Info:
            Public Key Algorithm: rsaEncryption
                Public-Key: (2048 bit)
                Modulus:
                    00:c0:95:08:e1:57:41:f2:71:6d:b7:d2:45:41:27:
                    01:65:c6:45:ae:f2:bc:24:30:b8:95:ce:2f:4e:d6:
                    f6:1c:88:bc:7c:9f:fb:a8:67:7f:fe:5c:9c:51:75:
                    f7:8a:ca:07:e7:35:2f:8f:e1:bd:7b:c0:2f:7c:ab:
                    64:a8:17:fc:ca:5d:7b:ba:e0:21:e5:72:2e:6f:2e:
                    86:d8:95:73:da:ac:1b:53:b9:5f:3f:d7:19:0d:25:
                    4f:e1:63:63:51:8b:0b:64:3f:ad:43:b8:a5:1c:5c:
                    34:b3:ae:00:a0:63:c5:f6:7f:0b:59:68:78:73:a6:
                    8c:18:a9:02:6d:af:c3:19:01:2e:b8:10:e3:c6:cc:
                    40:b4:69:a3:46:33:69:87:6e:c4:bb:17:a6:f3:e8:
                    dd:ad:73:bc:7b:2f:21:b5:fd:66:51:0c:bd:54:b3:
                    e1:6d:5f:1c:bc:23:73:d1:09:03:89:14:d2:10:b9:
                    64:c3:2a:d0:a1:96:4a:bc:e1:d4:1a:5b:c7:a0:c0:
                    c1:63:78:0f:44:37:30:32:96:80:32:23:95:a1:77:
                    ba:13:d2:97:73:e2:5d:25:c9:6a:0d:c3:39:60:a4:
                    b4:b0:69:42:42:09:e9:d8:08:bc:33:20:b3:58:22:
                    a7:aa:eb:c4:e1:e6:61:83:c5:d2:96:df:d9:d0:4f:
                    ad:d7
                Exponent: 65537 (0x10001)
        X509v3 extensions:
            X509v3 Subject Key Identifier: 
                B3:11:32:C9:92:98:84:E2:C9:F8:D0:3B:6E:03:42:CA:1F:0E:8E:3C
            X509v3 Authority Key Identifier: 
                keyid:B3:11:32:C9:92:98:84:E2:C9:F8:D0:3B:6E:03:42:CA:1F:0E:8E:3C
                DirName:/C=US/ST=Montana/L=Bozeman/O=Sawtooth/OU=Consulting/CN=www.wolfssl.com/emailAddress=info@wolfssl.com
                serial:66

            X509v3 Basic Constraints: 
                CA:TRUE, pathlen:0
            X509v3 Key Usage: 
                Certificate Sign, CRL Sign
    Signature Algorithm: sha1WithRSAEncryption
         37:78:ec:5f:82:05:c6:19:f6:3a:be:82:5f:1e:d3:69:26:20:
         92:f2:24:e8:6d:5f:44:70:ca:bd:53:24:ab:1f:58:6b:24:08:
         d0:3a:a6:46:d3:1d:63:7c:22:8b:4a:e2:69:9e:de:03:08:91:
         b5:37:bb:55:fe:91:fc:b4:2f:ce:9f:58:f7:80:6c:77:ed:82:
         6d:93:f0:30:9b:42:21:dc:98:64:87:df:f5:2f:f6:90:d9:af:
         7b:e0:98:68:07:3a:bd:70:60:e6:c8:4b:a2:c7:aa:9d:3b:cf:
         79:07:44:57:86:cc:e2:3a:7d:b1:ee:c7:61:48:8c:0e:b0:8d:
         0c:f6:c2:3e:e2:68:2d:50:a7:ac:5b:86:6e:f5:d1:5e:24:dd:
         b7:c4:23:c0:90:82:e1:4f:bb:a7:6f:94:d3:9b:a3:28:30:12:
         8b:57:18:79:91:92:44:97:ff:08:75:49:74:3b:a8:91:ca:30:
         e0:d0:5b:90:b7:26:14:69:b8:fe:72:fa:cd:8a:da:75:28:6d:
         e2:e4:82:83:83:01:e4:60:c8:67:5b:ef:04:a9:29:2a:6d:64:
         1a:fc:fd:52:57:57:56:b3:bb:06:0e:e5:5f:22:d1:88:6b:12:
         aa:f1:d5:91:09:c9:5c:1c:55:18:e6:34:fa:cd:d7:aa:bf:04:
         fa:58:7d:cf
-----BEGIN CERTIFICATE-----
MIIEtjCCA56gAwIBAgIBZzANBgkqhkiG9w0BAQUFADCBmDELMAkGA1UEBhMCVVMx
EzARBgNVBAgMCldhc2hpbmd0b24xEDAOBgNVBAcMB1NlYXR0bGUxFTATBgNVBAoM
DHdvbGZTU0wgSW5jLjEUMBIGA1UECwwLRW5naW5lZXJpbmcxFDASBgNVBAMMC1Nl
cnZlciAxIENBMR8wHQYJKoZIhvcNAQkBFhBpbmZvQHdvbGZzc2wuY29tMB4XDTE2
MDkyMDIxMjMxOFoXDTE5MDYxNjIxMjMxOFowgZoxCzAJBgNVBAYTAlVTMRMwEQYD
VQQIDApXYXNoaW5ndG9uMRAwDgYDVQQHDAdTZWF0dGxlMRUwEwYDVQQKDAx3b2xm
U1NMIEluYy4xFDASBgNVBAsMC0VuZ2luZWVyaW5nMRYwFAYDVQQDDA1TZXJ2ZXIg
MS0wIENBMR8wHQYJKoZIhvcNAQkBFhBpbmZvQHdvbGZzc2wuY29tMIIBIjANBgkq
hkiG9w0BAQEFAAOCAQ8AMIIBCgKCAQEAwJUI4VdB8nFtt9JFQScBZcZFrvK8JDC4
lc4vTtb2HIi8fJ/7qGd//lycUXX3isoH5zUvj+G9e8AvfKtkqBf8yl17uuAh5XIu
by6G2JVz2qwbU7lfP9cZDSVP4WNjUYsLZD+tQ7ilHFw0s64AoGPF9n8LWWh4c6aM
GKkCba/DGQEuuBDjxsxAtGmjRjNph27Euxem8+jdrXO8ey8htf1mUQy9VLPhbV8c
vCNz0QkDiRTSELlkwyrQoZZKvOHUGlvHoMDBY3gPRDcwMpaAMiOVoXe6E9KXc+Jd
JclqDcM5YKS0sGlCQgnp2Ai8MyCzWCKnquvE4eZhg8XSlt/Z0E+t1wIDAQABo4IB
BTCCAQEwHQYDVR0OBBYEFLMRMsmSmITiyfjQO24DQsofDo48MIHBBgNVHSMEgbkw
gbaAFLMRMsmSmITiyfjQO24DQsofDo48oYGapIGXMIGUMQswCQYDVQQGEwJVUzEQ
MA4GA1UECAwHTW9udGFuYTEQMA4GA1UEBwwHQm96ZW1hbjERMA8GA1UECgwIU2F3
dG9vdGgxEzARBgNVBAsMCkNvbnN1bHRpbmcxGDAWBgNVBAMMD3d3dy53b2xmc3Ns
LmNvbTEfMB0GCSqGSIb3DQEJARYQaW5mb0B3b2xmc3NsLmNvbYIBZjAPBgNVHRME
CDAGAQH/AgEAMAsGA1UdDwQEAwIBBjANBgkqhkiG9w0BAQUFAAOCAQEAN3jsX4IF
xhn2Or6CXx7TaSYgkvIk6G1fRHDKvVMkqx9YayQI0DqmRtMdY3wii0riaZ7eAwiR
tTe7Vf6R/LQvzp9Y94Bsd+2CbZPwMJtCIdyYZIff9S/2kNmve+CYaAc6vXBg5shL
oseqnTvPeQdEV4bM4jp9se7HYUiMDrCNDPbCPuJoLVCnrFuGbvXRXiTdt8QjwJCC
4U+7p2+U05ujKDASi1cYeZGSRJf/CHVJdDuokcow4NBbkLcmFGm4/nL6zYradSht
4uSCg4MB5GDIZ1vvBKkpKm1kGvz9UldXVrO7Bg7lXyLRiGsSqvHVkQnJXBxVGOY0
+s3Xqr8E+lh9zw==
-----END CERTIFICATE-----
