Certificate:
    Data:
        Version: 3 (0x2)
        Serial Number: 101 (0x65)
    Signature Algorithm: sha1WithRSAEncryption
        Issuer: C=US, ST=Washington, L=Seattle, O=wolfSSL Inc., OU=Engineering, CN=Server 0 CA/emailAddress=info@wolfssl.com
        Validity
            Not Before: Sep 20 00:03:21 2016 GMT
            Not After : Jun 17 00:03:21 2019 GMT
        Subject: C=US, ST=Washington, L=Seattle, O=wolfSSL Inc., OU=Engineering, CN=Server 0/emailAddress=info@wolfssl.com
        Subject Public Key Info:
            Public Key Algorithm: rsaEncryption
                Public-Key: (2048 bit)
                Modulus:
                    00:c0:95:08:e1:57:41:f2:71:6d:b7:d2:45:41:27:
                    01:65:c6:45:ae:f2:bc:24:30:b8:95:ce:2f:4e:d6:
                    f6:1c:88:bc:7c:9f:fb:a8:67:7f:fe:5c:9c:51:75:
                    f7:8a:ca:07:e7:35:2f:8f:e1:bd:7b:c0:2f:7c:ab:
                    64:a8:17:fc:ca:5d:7b:ba:e0:21:e5:72:2e:6f:2e:
                    86:d8:95:73:da:ac:1b:53:b9:5f:3f:d7:19:0d:25:
                    4f:e1:63:63:51:8b:0b:64:3f:ad:43:b8:a5:1c:5c:
                    34:b3:ae:00:a0:63:c5:f6:7f:0b:59:68:78:73:a6:
                    8c:18:a9:02:6d:af:c3:19:01:2e:b8:10:e3:c6:cc:
                    40:b4:69:a3:46:33:69:87:6e:c4:bb:17:a6:f3:e8:
                    dd:ad:73:bc:7b:2f:21:b5:fd:66:51:0c:bd:54:b3:
                    e1:6d:5f:1c:bc:23:73:d1:09:03:89:14:d2:10:b9:
                    64:c3:2a:d0:a1:96:4a:bc:e1:d4:1a:5b:c7:a0:c0:
                    c1:63:78:0f:44:37:30:32:96:80:32:23:95:a1:77:
                    ba:13:d2:97:73:e2:5d:25:c9:6a:0d:c3:39:60:a4:
                    b4:b0:69:42:42:09:e9:d8:08:bc:33:20:b3:58:22:
                    a7:aa:eb:c4:e1:e6:61:83:c5:d2:96:df:d9:d0:4f:
                    ad:d7
                Exponent: 65537 (0x10001)
        X509v3 extensions:
            X509v3 Subject Key Identifier: 
                B3:11:32:C9:92:98:84:E2:C9:F8:D0:3B:6E:03:42:CA:1F:0E:8E:3C
            X509v3 Authority Key Identifier: 
                keyid:B3:11:32:C9:92:98:84:E2:C9:F8:D0:3B:6E:03:42:CA:1F:0E:8E:3C
                DirName:/C=US/ST=Montana/L=Bozeman/O=Sawtooth/OU=Consulting/CN=www.wolfssl.com/emailAddress=info@wolfssl.com
                serial:64

            X509v3 Basic Constraints: 
                CA:FALSE
    Signature Algorithm: sha1WithRSAEncryption
         09:2d:8f:57:0a:4c:f7:b1:30:48:1c:eb:00:c3:06:8c:d6:49:
         dd:45:92:25:5c:29:1a:86:90:74:28:46:18:65:8f:fb:13:c4:
         a7:85:3d:93:42:37:a1:44:aa:17:f6:b3:99:68:05:99:02:e5:
         ac:cd:5e:3d:fc:fe:1f:a8:b2:2c:b4:2b:9c:a2:0b:94:f0:7b:
         ef:5c:e9:ae:e5:fa:72:b9:a4:d5:b5:09:54:01:02:6a:da:09:
         0c:72:4b:14:bd:1d:64:b7:70:80:be:cd:33:86:5e:1f:a0:49:
         54:9d:af:eb:5c:dc:d5:15:97:7b:5f:8f:b3:6f:54:ce:16:f7:
         d4:be:0b:40:f0:5b:31:54:04:49:37:d2:9d:c8:9a:05:1a:6e:
         27:db:37:60:de:32:a7:d9:33:da:4b:a8:9e:08:0a:13:c4:ec:
         75:e9:17:39:da:14:21:f5:c4:2b:9c:b6:31:ad:61:df:ed:52:
         d2:d6:1f:d9:e0:f9:bb:29:15:9f:40:f5:e2:41:43:90:46:24:
         e2:34:55:57:44:7b:46:c5:87:84:80:46:02:a5:db:7d:bc:0d:
         69:ce:aa:9e:3e:e3:7a:bf:69:61:88:f7:a1:6e:01:0b:f4:59:
         c2:42:d4:e0:32:d4:13:16:8a:39:fe:0b:9d:31:26:47:92:8c:
         8f:1e:a4:4e
-----BEGIN CERTIFICATE-----
MIIEnDCCA4SgAwIBAgIBZTANBgkqhkiG9w0BAQUFADCBmDELMAkGA1UEBhMCVVMx
EzARBgNVBAgMCldhc2hpbmd0b24xEDAOBgNVBAcMB1NlYXR0bGUxFTATBgNVBAoM
DHdvbGZTU0wgSW5jLjEUMBIGA1UECwwLRW5naW5lZXJpbmcxFDASBgNVBAMMC1Nl
cnZlciAwIENBMR8wHQYJKoZIhvcNAQkBFhBpbmZvQHdvbGZzc2wuY29tMB4XDTE2
MDkyMDAwMDMyMVoXDTE5MDYxNzAwMDMyMVowgZUxCzAJBgNVBAYTAlVTMRMwEQYD
VQQIDApXYXNoaW5ndG9uMRAwDgYDVQQHDAdTZWF0dGxlMRUwEwYDVQQKDAx3b2xm
U1NMIEluYy4xFDASBgNVBAsMC0VuZ2luZWVyaW5nMREwDwYDVQQDDAhTZXJ2ZXIg
MDEfMB0GCSqGSIb3DQEJARYQaW5mb0B3b2xmc3NsLmNvbTCCASIwDQYJKoZIhvcN
AQEBBQADggEPADCCAQoCggEBAMCVCOFXQfJxbbfSRUEnAWXGRa7yvCQwuJXOL07W
9hyIvHyf+6hnf/5cnFF194rKB+c1L4/hvXvAL3yrZKgX/Mpde7rgIeVyLm8uhtiV
c9qsG1O5Xz/XGQ0lT+FjY1GLC2Q/rUO4pRxcNLOuAKBjxfZ/C1loeHOmjBipAm2v
wxkBLrgQ48bMQLRpo0YzaYduxLsXpvPo3a1zvHsvIbX9ZlEMvVSz4W1fHLwjc9EJ
A4kU0hC5ZMMq0KGWSrzh1Bpbx6DAwWN4D0Q3MDKWgDIjlaF3uhPSl3PiXSXJag3D
OWCktLBpQkIJ6dgIvDMgs1gip6rrxOHmYYPF0pbf2dBPrdcCAwEAAaOB8TCB7jAd
BgNVHQ4EFgQUsxEyyZKYhOLJ+NA7bgNCyh8OjjwwgcEGA1UdIwSBuTCBtoAUsxEy
yZKYhOLJ+NA7bgNCyh8OjjyhgZqkgZcwgZQxCzAJBgNVBAYTAlVTMRAwDgYDVQQI
DAdNb250YW5hMRAwDgYDVQQHDAdCb3plbWFuMREwDwYDVQQKDAhTYXd0b290aDET
MBEGA1UECwwKQ29uc3VsdGluZzEYMBYGA1UEAwwPd3d3LndvbGZzc2wuY29tMR8w
HQYJKoZIhvcNAQkBFhBpbmZvQHdvbGZzc2wuY29tggFkMAkGA1UdEwQCMAAwDQYJ
KoZIhvcNAQEFBQADggEBAAktj1cKTPexMEgc6wDDBozWSd1FkiVcKRqGkHQoRhhl
j/sTxKeFPZNCN6FEqhf2s5loBZkC5azNXj38/h+osiy0K5yiC5Twe+9c6a7l+nK5
pNW1CVQBAmraCQxySxS9HWS3cIC+zTOGXh+gSVSdr+tc3NUVl3tfj7NvVM4W99S+
C0DwWzFUBEk30p3ImgUabifbN2DeMqfZM9pLqJ4IChPE7HXpFznaFCH1xCuctjGt
Yd/tUtLWH9ng+bspFZ9A9eJBQ5BGJOI0VVdEe0bFh4SARgKl2328DWnOqp4+43q/
aWGI96FuAQv0WcJC1OAy1BMWijn+C50xJkeSjI8epE4=
-----END CERTIFICATE-----
Certificate:
    Data:
        Version: 3 (0x2)
        Serial Number: 100 (0x64)
    Signature Algorithm: sha1WithRSAEncryption
        Issuer: C=US, ST=Montana, L=Bozeman, O=Sawtooth, OU=Consulting, CN=www.wolfssl.com/emailAddress=info@wolfssl.com
        Validity
            Not Before: Sep 19 23:03:51 2016 GMT
            Not After : Jun 16 23:03:51 2019 GMT
        Subject: C=US, ST=Washington, L=Seattle, O=wolfSSL Inc., OU=Engineering, CN=Server 0 CA/emailAddress=info@wolfssl.com
        Subject Public Key Info:
            Public Key Algorithm: rsaEncryption
                Public-Key: (2048 bit)
                Modulus:
                    00:c0:95:08:e1:57:41:f2:71:6d:b7:d2:45:41:27:
                    01:65:c6:45:ae:f2:bc:24:30:b8:95:ce:2f:4e:d6:
                    f6:1c:88:bc:7c:9f:fb:a8:67:7f:fe:5c:9c:51:75:
                    f7:8a:ca:07:e7:35:2f:8f:e1:bd:7b:c0:2f:7c:ab:
                    64:a8:17:fc:ca:5d:7b:ba:e0:21:e5:72:2e:6f:2e:
                    86:d8:95:73:da:ac:1b:53:b9:5f:3f:d7:19:0d:25:
                    4f:e1:63:63:51:8b:0b:64:3f:ad:43:b8:a5:1c:5c:
                    34:b3:ae:00:a0:63:c5:f6:7f:0b:59:68:78:73:a6:
                    8c:18:a9:02:6d:af:c3:19:01:2e:b8:10:e3:c6:cc:
                    40:b4:69:a3:46:33:69:87:6e:c4:bb:17:a6:f3:e8:
                    dd:ad:73:bc:7b:2f:21:b5:fd:66:51:0c:bd:54:b3:
                    e1:6d:5f:1c:bc:23:73:d1:09:03:89:14:d2:10:b9:
                    64:c3:2a:d0:a1:96:4a:bc:e1:d4:1a:5b:c7:a0:c0:
                    c1:63:78:0f:44:37:30:32:96:80:32:23:95:a1:77:
                    ba:13:d2:97:73:e2:5d:25:c9:6a:0d:c3:39:60:a4:
                    b4:b0:69:42:42:09:e9:d8:08:bc:33:20:b3:58:22:
                    a7:aa:eb:c4:e1:e6:61:83:c5:d2:96:df:d9:d0:4f:
                    ad:d7
                Exponent: 65537 (0x10001)
        X509v3 extensions:
            X509v3 Subject Key Identifier: 
                B3:11:32:C9:92:98:84:E2:C9:F8:D0:3B:6E:03:42:CA:1F:0E:8E:3C
            X509v3 Authority Key Identifier: 
                keyid:27:8E:67:11:74:C3:26:1D:3F:ED:33:63:B3:A4:D8:1D:30:E5:E8:D5
                DirName:/C=US/ST=Montana/L=Bozeman/O=Sawtooth/OU=Consulting/CN=www.wolfssl.com/emailAddress=info@wolfssl.com
                serial:B7:B6:90:33:66:1B:6B:23

            X509v3 Basic Constraints: 
                CA:TRUE, pathlen:0
            X509v3 Key Usage: 
                Certificate Sign, CRL Sign
    Signature Algorithm: sha1WithRSAEncryption
         a4:3b:22:20:6f:07:33:d0:ae:6d:13:fd:4f:48:dc:03:c6:9c:
         e0:34:73:fa:e8:2f:aa:bd:15:1c:87:fe:6f:e4:c6:8e:36:b8:
         b6:bb:53:c1:ea:e4:5c:d9:de:44:d5:05:89:88:79:d9:87:c9:
         05:78:57:bf:c0:25:1f:18:b6:f6:02:50:c8:b1:d1:0d:64:b0:
         da:7e:68:e0:fa:64:68:51:1a:05:7f:7d:33:c5:27:71:0f:f6:
         d7:72:19:7c:9f:57:34:5f:45:7a:b5:48:2e:d1:83:36:85:90:
         0c:c8:c1:be:3f:c3:7a:a3:ad:9b:3a:ce:a7:b4:50:1b:76:2e:
         8a:a4:a4:61:96:75:b4:a7:63:6e:7c:43:2f:98:18:39:92:57:
         87:54:76:37:73:53:37:cb:f1:95:34:11:9d:f4:94:e7:19:4a:
         9d:5f:91:cc:ff:b4:ed:39:53:82:42:86:2e:24:13:41:a4:4a:
         6c:d1:d9:00:ac:76:2c:59:9e:c4:28:33:b5:01:bf:74:63:01:
         23:8a:a8:78:e4:b7:e0:8b:ab:ec:b0:43:d8:0b:b8:ff:9e:62:
         0a:5d:e4:7c:73:f9:b4:d7:dd:6a:13:a5:28:05:90:f1:26:c1:
         4d:2b:db:a2:c6:f5:aa:13:19:a5:28:27:f8:c7:94:e8:ef:21:
         85:5b:32:02
-----BEGIN CERTIFICATE-----
MIIEuDCCA6CgAwIBAgIBZDANBgkqhkiG9w0BAQUFADCBlDELMAkGA1UEBhMCVVMx
EDAOBgNVBAgMB01vbnRhbmExEDAOBgNVBAcMB0JvemVtYW4xETAPBgNVBAoMCFNh
d3Rvb3RoMRMwEQYDVQQLDApDb25zdWx0aW5nMRgwFgYDVQQDDA93d3cud29sZnNz
bC5jb20xHzAdBgkqhkiG9w0BCQEWEGluZm9Ad29sZnNzbC5jb20wHhcNMTYwOTE5
MjMwMzUxWhcNMTkwNjE2MjMwMzUxWjCBmDELMAkGA1UEBhMCVVMxEzARBgNVBAgM
Cldhc2hpbmd0b24xEDAOBgNVBAcMB1NlYXR0bGUxFTATBgNVBAoMDHdvbGZTU0wg
SW5jLjEUMBIGA1UECwwLRW5naW5lZXJpbmcxFDASBgNVBAMMC1NlcnZlciAwIENB
MR8wHQYJKoZIhvcNAQkBFhBpbmZvQHdvbGZzc2wuY29tMIIBIjANBgkqhkiG9w0B
AQEFAAOCAQ8AMIIBCgKCAQEAwJUI4VdB8nFtt9JFQScBZcZFrvK8JDC4lc4vTtb2
HIi8fJ/7qGd//lycUXX3isoH5zUvj+G9e8AvfKtkqBf8yl17uuAh5XIuby6G2JVz
2qwbU7lfP9cZDSVP4WNjUYsLZD+tQ7ilHFw0s64AoGPF9n8LWWh4c6aMGKkCba/D
GQEuuBDjxsxAtGmjRjNph27Euxem8+jdrXO8ey8htf1mUQy9VLPhbV8cvCNz0QkD
iRTSELlkwyrQoZZKvOHUGlvHoMDBY3gPRDcwMpaAMiOVoXe6E9KXc+JdJclqDcM5
YKS0sGlCQgnp2Ai8MyCzWCKnquvE4eZhg8XSlt/Z0E+t1wIDAQABo4IBDTCCAQkw
HQYDVR0OBBYEFLMRMsmSmITiyfjQO24DQsofDo48MIHJBgNVHSMEgcEwgb6AFCeO
ZxF0wyYdP+0zY7Ok2B0w5ejVoYGapIGXMIGUMQswCQYDVQQGEwJVUzEQMA4GA1UE
CAwHTW9udGFuYTEQMA4GA1UEBwwHQm96ZW1hbjERMA8GA1UECgwIU2F3dG9vdGgx
EzARBgNVBAsMCkNvbnN1bHRpbmcxGDAWBgNVBAMMD3d3dy53b2xmc3NsLmNvbTEf
MB0GCSqGSIb3DQEJARYQaW5mb0B3b2xmc3NsLmNvbYIJALe2kDNmG2sjMA8GA1Ud
EwQIMAYBAf8CAQAwCwYDVR0PBAQDAgEGMA0GCSqGSIb3DQEBBQUAA4IBAQCkOyIg
bwcz0K5tE/1PSNwDxpzgNHP66C+qvRUch/5v5MaONri2u1PB6uRc2d5E1QWJiHnZ
h8kFeFe/wCUfGLb2AlDIsdENZLDafmjg+mRoURoFf30zxSdxD/bXchl8n1c0X0V6
tUgu0YM2hZAMyMG+P8N6o62bOs6ntFAbdi6KpKRhlnW0p2NufEMvmBg5kleHVHY3
c1M3y/GVNBGd9JTnGUqdX5HM/7TtOVOCQoYuJBNBpEps0dkArHYsWZ7EKDO1Ab90
YwEjiqh45Lfgi6vssEPYC7j/nmIKXeR8c/m0191qE6UoBZDxJsFNK9uixvWqExml
KCf4x5To7yGFWzIC
-----END CERTIFICATE-----
