Certificate:
    Data:
        Version: 3 (0x2)
        Serial Number: 104 (0x68)
    Signature Algorithm: sha1WithRSAEncryption
        Issuer: C=US, ST=Washington, L=Seattle, O=wolfSSL Inc., OU=Engineering, CN=Server 1-0 CA/emailAddress=info@wolfssl.com
        Validity
            Not Before: Sep 20 00:07:57 2016 GMT
            Not After : Jun 17 00:07:57 2019 GMT
        Subject: C=US, ST=Washington, L=Seattle, O=wolfSSL Inc., OU=Engineering, CN=Server 1-0/emailAddress=info@wolfssl.com
        Subject Public Key Info:
            Public Key Algorithm: rsaEncryption
                Public-Key: (2048 bit)
                Modulus:
                    00:c0:95:08:e1:57:41:f2:71:6d:b7:d2:45:41:27:
                    01:65:c6:45:ae:f2:bc:24:30:b8:95:ce:2f:4e:d6:
                    f6:1c:88:bc:7c:9f:fb:a8:67:7f:fe:5c:9c:51:75:
                    f7:8a:ca:07:e7:35:2f:8f:e1:bd:7b:c0:2f:7c:ab:
                    64:a8:17:fc:ca:5d:7b:ba:e0:21:e5:72:2e:6f:2e:
                    86:d8:95:73:da:ac:1b:53:b9:5f:3f:d7:19:0d:25:
                    4f:e1:63:63:51:8b:0b:64:3f:ad:43:b8:a5:1c:5c:
                    34:b3:ae:00:a0:63:c5:f6:7f:0b:59:68:78:73:a6:
                    8c:18:a9:02:6d:af:c3:19:01:2e:b8:10:e3:c6:cc:
                    40:b4:69:a3:46:33:69:87:6e:c4:bb:17:a6:f3:e8:
                    dd:ad:73:bc:7b:2f:21:b5:fd:66:51:0c:bd:54:b3:
                    e1:6d:5f:1c:bc:23:73:d1:09:03:89:14:d2:10:b9:
                    64:c3:2a:d0:a1:96:4a:bc:e1:d4:1a:5b:c7:a0:c0:
                    c1:63:78:0f:44:37:30:32:96:80:32:23:95:a1:77:
                    ba:13:d2:97:73:e2:5d:25:c9:6a:0d:c3:39:60:a4:
                    b4:b0:69:42:42:09:e9:d8:08:bc:33:20:b3:58:22:
                    a7:aa:eb:c4:e1:e6:61:83:c5:d2:96:df:d9:d0:4f:
                    ad:d7
                Exponent: 65537 (0x10001)
        X509v3 extensions:
            X509v3 Subject Key Identifier: 
                B3:11:32:C9:92:98:84:E2:C9:F8:D0:3B:6E:03:42:CA:1F:0E:8E:3C
            X509v3 Authority Key Identifier: 
                keyid:B3:11:32:C9:92:98:84:E2:C9:F8:D0:3B:6E:03:42:CA:1F:0E:8E:3C
                DirName:/C=US/ST=Washington/L=Seattle/O=wolfSSL Inc./OU=Engineering/CN=Server 1 CA/emailAddress=info@wolfssl.com
                serial:67

            X509v3 Basic Constraints: 
                CA:FALSE
    Signature Algorithm: sha1WithRSAEncryption
         6d:98:b9:e7:03:b3:0e:36:15:f5:6f:6c:60:59:9d:60:95:cb:
         8c:31:f6:b7:7d:27:6a:37:99:79:cb:06:89:4a:87:c8:a6:d7:
         86:46:5c:f3:02:f9:37:98:3a:d2:59:3a:37:59:7e:46:58:ee:
         18:b2:77:a9:85:39:45:e1:05:d4:a7:bc:1e:cc:4a:a3:be:1e:
         7e:58:15:79:c4:25:8f:1d:3f:f4:e2:5d:3c:c1:a5:45:f3:e0:
         fd:97:96:49:78:c7:c7:e2:e9:78:97:91:9c:44:a3:f9:b4:cc:
         14:61:b4:03:55:ef:d2:33:3b:8d:8e:01:e1:a1:27:a4:1e:66:
         06:13:0b:e0:5b:6b:69:8a:8a:c8:c5:a9:a3:8f:6e:dd:25:03:
         5f:3f:65:21:8e:d5:b2:dc:0e:e1:b6:d2:fd:9c:d8:99:33:f6:
         4b:8c:71:2b:9e:0a:3a:40:a5:28:ef:d8:65:fb:08:2f:f4:e9:
         2b:d6:7c:9c:09:1c:6e:aa:f0:7f:67:13:dc:a3:e6:fa:5c:49:
         04:ba:55:d4:3e:4d:17:3d:e9:13:bf:b1:95:e8:71:41:47:4a:
         73:52:97:85:71:ac:a1:b7:32:82:64:77:c2:53:5c:f0:35:81:
         34:10:77:09:69:04:73:05:39:b6:62:2e:fd:37:a4:20:3e:40:
         98:a5:e5:dc
-----BEGIN CERTIFICATE-----
MIIEpDCCA4ygAwIBAgIBaDANBgkqhkiG9w0BAQUFADCBmjELMAkGA1UEBhMCVVMx
EzARBgNVBAgMCldhc2hpbmd0b24xEDAOBgNVBAcMB1NlYXR0bGUxFTATBgNVBAoM
DHdvbGZTU0wgSW5jLjEUMBIGA1UECwwLRW5naW5lZXJpbmcxFjAUBgNVBAMMDVNl
cnZlciAxLTAgQ0ExHzAdBgkqhkiG9w0BCQEWEGluZm9Ad29sZnNzbC5jb20wHhcN
MTYwOTIwMDAwNzU3WhcNMTkwNjE3MDAwNzU3WjCBlzELMAkGA1UEBhMCVVMxEzAR
BgNVBAgMCldhc2hpbmd0b24xEDAOBgNVBAcMB1NlYXR0bGUxFTATBgNVBAoMDHdv
bGZTU0wgSW5jLjEUMBIGA1UECwwLRW5naW5lZXJpbmcxEzARBgNVBAMMClNlcnZl
ciAxLTAxHzAdBgkqhkiG9w0BCQEWEGluZm9Ad29sZnNzbC5jb20wggEiMA0GCSqG
SIb3DQEBAQUAA4IBDwAwggEKAoIBAQDAlQjhV0HycW230kVBJwFlxkWu8rwkMLiV
zi9O1vYciLx8n/uoZ3/+XJxRdfeKygfnNS+P4b17wC98q2SoF/zKXXu64CHlci5v
LobYlXParBtTuV8/1xkNJU/hY2NRiwtkP61DuKUcXDSzrgCgY8X2fwtZaHhzpowY
qQJtr8MZAS64EOPGzEC0aaNGM2mHbsS7F6bz6N2tc7x7LyG1/WZRDL1Us+FtXxy8
I3PRCQOJFNIQuWTDKtChlkq84dQaW8egwMFjeA9ENzAyloAyI5Whd7oT0pdz4l0l
yWoNwzlgpLSwaUJCCenYCLwzILNYIqeq68Th5mGDxdKW39nQT63XAgMBAAGjgfUw
gfIwHQYDVR0OBBYEFLMRMsmSmITiyfjQO24DQsofDo48MIHFBgNVHSMEgb0wgbqA
FLMRMsmSmITiyfjQO24DQsofDo48oYGepIGbMIGYMQswCQYDVQQGEwJVUzETMBEG
A1UECAwKV2FzaGluZ3RvbjEQMA4GA1UEBwwHU2VhdHRsZTEVMBMGA1UECgwMd29s
ZlNTTCBJbmMuMRQwEgYDVQQLDAtFbmdpbmVlcmluZzEUMBIGA1UEAwwLU2VydmVy
IDEgQ0ExHzAdBgkqhkiG9w0BCQEWEGluZm9Ad29sZnNzbC5jb22CAWcwCQYDVR0T
BAIwADANBgkqhkiG9w0BAQUFAAOCAQEAbZi55wOzDjYV9W9sYFmdYJXLjDH2t30n
ajeZecsGiUqHyKbXhkZc8wL5N5g60lk6N1l+RljuGLJ3qYU5ReEF1Ke8HsxKo74e
flgVecQljx0/9OJdPMGlRfPg/ZeWSXjHx+LpeJeRnESj+bTMFGG0A1Xv0jM7jY4B
4aEnpB5mBhML4FtraYqKyMWpo49u3SUDXz9lIY7VstwO4bbS/ZzYmTP2S4xxK54K
OkClKO/YZfsIL/TpK9Z8nAkcbqrwf2cT3KPm+lxJBLpV1D5NFz3pE7+xlehxQUdK
c1KXhXGsobcygmR3wlNc8DWBNBB3CWkEcwU5tmIu/TekID5AmKXl3A==
-----END CERTIFICATE-----
