Certificate:
    Data:
        Version: 3 (0x2)
        Serial Number: 5 (0x5)
    Signature Algorithm: sha256WithRSAEncryption
        Issuer: C=US, ST=Washington, L=Seattle, O=wolfSSL, OU=Engineering, CN=wolfSSL intermediate CA 1/emailAddress=info@wolfssl.com
        Validity
            Not Before: Dec 30 19:12:46 2015 GMT
            Not After : Sep 25 19:12:46 2018 GMT
        Subject: C=US, ST=Washington, L=Seattle, O=wolfSSL, OU=Engineering, CN=www1.wolfssl.com/emailAddress=info@wolfssl.com
        Subject Public Key Info:
            Public Key Algorithm: rsaEncryption
                Public-Key: (2048 bit)
                Modulus:
                    00:e6:96:55:75:cf:8a:97:68:8c:b6:38:f6:7a:05:
                    be:33:b6:51:47:37:8a:f7:db:91:be:92:6b:b7:00:
                    8c:f2:c5:24:6e:18:e9:92:00:81:01:dc:b3:4c:28:
                    a9:b7:80:f1:96:cf:23:7a:2f:ae:f8:e3:0f:2d:d3:
                    5e:23:e7:db:4c:b2:5d:89:16:17:be:be:81:db:fb:
                    12:6d:28:4b:10:a0:12:04:27:c1:c9:d0:79:95:ef:
                    e8:8d:8c:59:9b:4e:72:7d:bc:49:2b:22:4e:f8:4f:
                    e2:0c:f1:e9:e9:97:f9:df:8c:5a:0a:aa:38:1d:43:
                    04:a3:a7:89:a1:e2:83:a4:4b:b5:4e:45:88:a6:22:
                    5d:ac:a9:58:67:88:c1:d5:61:ef:bd:11:05:27:94:
                    47:bb:33:a5:8a:ca:ee:1f:8d:c0:6e:24:af:cd:ca:
                    bf:80:47:71:95:ac:a9:f1:5d:23:6c:f5:4b:b4:a9:
                    e1:c4:66:fb:e5:c4:a1:9f:a7:51:d1:78:cd:2e:b4:
                    3f:2e:e2:82:f3:7f:c4:a7:f4:31:cf:76:27:3f:db:
                    2e:d2:6e:c3:47:23:82:a3:48:40:8c:a7:c1:13:f0:
                    63:50:54:43:f6:71:12:e1:6f:a5:7a:58:26:f7:fd:
                    8b:3b:70:18:a0:43:ba:01:6b:b3:f8:d5:be:05:13:
                    64:31
                Exponent: 65537 (0x10001)
        X509v3 extensions:
            X509v3 Basic Constraints: 
                CA:FALSE
            X509v3 Subject Key Identifier: 
                CC:55:15:00:E2:44:89:92:63:6D:10:5D:B9:9E:73:B6:5D:3A:19:CA
            X509v3 Authority Key Identifier: 
                keyid:83:C6:3A:89:2C:81:F4:02:D7:9D:4C:E2:2A:C0:71:82:64:44:DA:0E
                DirName:/C=US/ST=Washington/L=Seattle/O=wolfSSL/OU=Engineering/CN=wolfSSL root CA/emailAddress=info@wolfssl.com
                serial:01

            X509v3 Key Usage: 
                Digital Signature, Non Repudiation, Key Encipherment
            Authority Information Access: 
                OCSP - URI:http://127.0.0.1:22221

    Signature Algorithm: sha256WithRSAEncryption
         05:65:8d:f5:fa:47:b1:4d:b9:9b:86:b0:18:9d:c8:94:64:7d:
         16:5e:69:69:bb:62:06:9d:8c:be:4f:83:22:f1:0a:7d:ae:f5:
         ca:68:78:63:b2:bc:43:12:4f:d3:eb:ce:30:82:d6:be:81:c0:
         68:f4:3b:97:5f:3a:2c:88:62:36:0b:83:1d:ba:56:b1:06:65:
         cd:4d:ac:1d:92:3f:73:77:10:5b:17:44:1f:66:cf:a8:f2:1f:
         18:29:c0:5f:20:b6:cb:15:d4:35:b1:b0:a6:41:a8:6e:f0:29:
         83:28:3b:4a:68:e5:b7:42:2f:b4:8a:96:ed:65:84:de:0b:72:
         6f:2b:91:10:56:7f:cd:89:5e:22:30:cc:5a:df:39:88:a9:ea:
         af:1d:ba:9a:8a:3d:61:a6:c7:45:2d:ce:9f:76:f9:b2:45:9d:
         19:68:5d:e7:d6:3e:32:0e:65:83:79:63:81:0e:b5:44:51:47:
         9c:a7:6a:c1:5a:04:36:f3:b9:be:4d:76:80:55:2a:76:cd:61:
         15:c1:1a:5f:1f:62:b5:0f:ad:7f:48:66:81:eb:7a:04:b4:0a:
         92:a4:40:ff:bf:59:34:86:5c:1b:79:10:b4:d4:09:fa:45:3d:
         4f:bf:4c:30:b3:18:f2:b9:e9:8d:7c:5f:c0:67:ea:94:fb:ac:
         2e:90:ef:0d
-----BEGIN CERTIFICATE-----
MIIE7jCCA9agAwIBAgIBBTANBgkqhkiG9w0BAQsFADCBoTELMAkGA1UEBhMCVVMx
EzARBgNVBAgMCldhc2hpbmd0b24xEDAOBgNVBAcMB1NlYXR0bGUxEDAOBgNVBAoM
B3dvbGZTU0wxFDASBgNVBAsMC0VuZ2luZWVyaW5nMSIwIAYDVQQDDBl3b2xmU1NM
IGludGVybWVkaWF0ZSBDQSAxMR8wHQYJKoZIhvcNAQkBFhBpbmZvQHdvbGZzc2wu
Y29tMB4XDTE1MTIzMDE5MTI0NloXDTE4MDkyNTE5MTI0NlowgZgxCzAJBgNVBAYT
AlVTMRMwEQYDVQQIDApXYXNoaW5ndG9uMRAwDgYDVQQHDAdTZWF0dGxlMRAwDgYD
VQQKDAd3b2xmU1NMMRQwEgYDVQQLDAtFbmdpbmVlcmluZzEZMBcGA1UEAwwQd3d3
MS53b2xmc3NsLmNvbTEfMB0GCSqGSIb3DQEJARYQaW5mb0B3b2xmc3NsLmNvbTCC
ASIwDQYJKoZIhvcNAQEBBQADggEPADCCAQoCggEBAOaWVXXPipdojLY49noFvjO2
UUc3ivfbkb6Sa7cAjPLFJG4Y6ZIAgQHcs0woqbeA8ZbPI3ovrvjjDy3TXiPn20yy
XYkWF76+gdv7Em0oSxCgEgQnwcnQeZXv6I2MWZtOcn28SSsiTvhP4gzx6emX+d+M
WgqqOB1DBKOniaHig6RLtU5FiKYiXaypWGeIwdVh770RBSeUR7szpYrK7h+NwG4k
r83Kv4BHcZWsqfFdI2z1S7Sp4cRm++XEoZ+nUdF4zS60Py7igvN/xKf0Mc92Jz/b
LtJuw0cjgqNIQIynwRPwY1BUQ/ZxEuFvpXpYJvf9iztwGKBDugFrs/jVvgUTZDEC
AwEAAaOCATYwggEyMAkGA1UdEwQCMAAwHQYDVR0OBBYEFMxVFQDiRImSY20QXbme
c7ZdOhnKMIHEBgNVHSMEgbwwgbmAFIPGOoksgfQC151M4irAcYJkRNoOoYGdpIGa
MIGXMQswCQYDVQQGEwJVUzETMBEGA1UECAwKV2FzaGluZ3RvbjEQMA4GA1UEBwwH
U2VhdHRsZTEQMA4GA1UECgwHd29sZlNTTDEUMBIGA1UECwwLRW5naW5lZXJpbmcx
GDAWBgNVBAMMD3dvbGZTU0wgcm9vdCBDQTEfMB0GCSqGSIb3DQEJARYQaW5mb0B3
b2xmc3NsLmNvbYIBATALBgNVHQ8EBAMCBeAwMgYIKwYBBQUHAQEEJjAkMCIGCCsG
AQUFBzABhhZodHRwOi8vMTI3LjAuMC4xOjIyMjIxMA0GCSqGSIb3DQEBCwUAA4IB
AQAFZY31+kexTbmbhrAYnciUZH0WXmlpu2IGnYy+T4Mi8Qp9rvXKaHhjsrxDEk/T
684wgta+gcBo9DuXXzosiGI2C4MdulaxBmXNTawdkj9zdxBbF0QfZs+o8h8YKcBf
ILbLFdQ1sbCmQahu8CmDKDtKaOW3Qi+0ipbtZYTeC3JvK5EQVn/NiV4iMMxa3zmI
qeqvHbqaij1hpsdFLc6fdvmyRZ0ZaF3n1j4yDmWDeWOBDrVEUUecp2rBWgQ287m+
TXaAVSp2zWEVwRpfH2K1D61/SGaB63oEtAqSpED/v1k0hlwbeRC01An6RT1Pv0ww
sxjyuemNfF/AZ+qU+6wukO8N
-----END CERTIFICATE-----
Certificate:
    Data:
        Version: 3 (0x2)
        Serial Number: 1 (0x1)
    Signature Algorithm: sha256WithRSAEncryption
        Issuer: C=US, ST=Washington, L=Seattle, O=wolfSSL, OU=Engineering, CN=wolfSSL root CA/emailAddress=info@wolfssl.com
        Validity
            Not Before: Dec 30 19:12:46 2015 GMT
            Not After : Sep 25 19:12:46 2018 GMT
        Subject: C=US, ST=Washington, L=Seattle, O=wolfSSL, OU=Engineering, CN=wolfSSL intermediate CA 1/emailAddress=info@wolfssl.com
        Subject Public Key Info:
            Public Key Algorithm: rsaEncryption
                Public-Key: (2048 bit)
                Modulus:
                    00:de:b4:c8:5c:77:e0:2d:b1:f5:b9:ad:16:47:35:
                    a0:35:65:65:c6:e1:40:ab:1e:b4:b9:13:b7:cb:8c:
                    bb:77:a5:76:da:6d:87:87:f6:4a:4d:13:e4:26:3e:
                    27:87:ee:5b:c7:6a:3f:45:30:61:55:5c:f6:35:d1:
                    65:fa:98:11:a3:a7:55:d5:be:91:82:4b:fc:be:90:
                    d6:50:53:63:9a:2c:22:e1:35:11:dc:78:02:97:8a:
                    e4:46:92:9c:53:08:76:de:1f:53:b6:b8:ca:77:3e:
                    79:6e:bc:d0:e3:0d:30:5b:4c:f6:94:0d:30:29:64:
                    9f:04:e5:db:fb:89:60:67:bb:af:26:83:51:77:24:
                    2f:2b:0b:a1:94:81:10:98:e8:eb:26:a8:1e:7c:e4:
                    c4:6c:67:06:95:55:4a:dd:52:f4:f2:60:6d:01:2b:
                    19:91:35:6d:a4:08:47:06:71:24:00:d9:de:c6:56:
                    f3:8b:53:2c:e2:9a:96:a5:f3:62:e5:c4:e3:23:f2:
                    d2:fc:21:ea:0f:62:76:8d:d5:99:48:ce:dc:58:c4:
                    bb:7f:da:94:2c:80:74:83:c5:e0:b0:15:7e:41:fd:
                    0e:f2:f4:f0:78:76:7b:ad:26:0d:aa:48:96:17:2f:
                    21:e3:95:2b:26:37:f9:aa:80:2f:fe:de:f6:5e:bc:
                    97:7f
                Exponent: 65537 (0x10001)
        X509v3 extensions:
            X509v3 Basic Constraints: 
                CA:TRUE
            X509v3 Subject Key Identifier: 
                83:C6:3A:89:2C:81:F4:02:D7:9D:4C:E2:2A:C0:71:82:64:44:DA:0E
            X509v3 Authority Key Identifier: 
                keyid:73:B0:1C:A4:2F:82:CB:CF:47:A5:38:D7:B0:04:82:3A:7E:72:15:21
                DirName:/C=US/ST=Washington/L=Seattle/O=wolfSSL/OU=Engineering/CN=wolfSSL root CA/emailAddress=info@wolfssl.com
                serial:63

            X509v3 Key Usage: 
                Certificate Sign, CRL Sign
            Authority Information Access: 
                OCSP - URI:http://127.0.0.1:22220

    Signature Algorithm: sha256WithRSAEncryption
         0f:a2:19:93:09:2f:c8:c5:91:62:2b:1e:9c:69:93:ea:5f:f1:
         5e:b8:15:8e:0f:c9:82:08:3a:6b:60:3f:ad:1b:fa:47:94:a7:
         31:33:34:6c:cf:09:63:fd:8c:de:62:c4:2e:5f:71:19:2e:a8:
         96:63:37:16:e7:bf:37:67:2d:46:36:72:d0:e4:03:a7:89:a1:
         e4:4c:2f:76:31:79:0d:84:ae:c8:61:cf:98:03:2f:12:fc:17:
         60:60:88:b0:96:a0:a8:59:f5:96:1d:3d:1e:e0:c0:26:fd:1b:
         3e:42:73:ad:1d:39:0f:ff:d9:f0:71:52:e3:9a:9b:7a:b4:a2:
         af:50:e7:33:7f:66:40:65:bd:31:0c:c9:21:b0:d1:3f:df:b6:
         77:e5:05:ca:24:b9:72:c9:82:c6:9f:be:12:f6:5d:39:34:b7:
         20:df:e1:24:c3:b2:fe:98:b6:d3:6c:3e:43:62:6b:e2:6d:56:
         65:99:3e:aa:2e:a8:cb:82:2d:9b:11:da:8a:b6:63:20:12:c7:
         a0:5b:5d:5b:09:29:47:50:ad:4e:1f:68:29:d2:d9:0e:5f:5c:
         83:e8:e6:fd:c7:e5:f9:14:0d:14:8e:6e:34:dd:4f:ec:01:75:
         54:2d:24:c8:c6:98:c3:7f:d8:1d:4f:c5:ae:e0:b2:8e:f5:a8:
         bb:4b:1f:aa
-----BEGIN CERTIFICATE-----
MIIE8DCCA9igAwIBAgIBATANBgkqhkiG9w0BAQsFADCBlzELMAkGA1UEBhMCVVMx
EzARBgNVBAgMCldhc2hpbmd0b24xEDAOBgNVBAcMB1NlYXR0bGUxEDAOBgNVBAoM
B3dvbGZTU0wxFDASBgNVBAsMC0VuZ2luZWVyaW5nMRgwFgYDVQQDDA93b2xmU1NM
IHJvb3QgQ0ExHzAdBgkqhkiG9w0BCQEWEGluZm9Ad29sZnNzbC5jb20wHhcNMTUx
MjMwMTkxMjQ2WhcNMTgwOTI1MTkxMjQ2WjCBoTELMAkGA1UEBhMCVVMxEzARBgNV
BAgMCldhc2hpbmd0b24xEDAOBgNVBAcMB1NlYXR0bGUxEDAOBgNVBAoMB3dvbGZT
U0wxFDASBgNVBAsMC0VuZ2luZWVyaW5nMSIwIAYDVQQDDBl3b2xmU1NMIGludGVy
bWVkaWF0ZSBDQSAxMR8wHQYJKoZIhvcNAQkBFhBpbmZvQHdvbGZzc2wuY29tMIIB
IjANBgkqhkiG9w0BAQEFAAOCAQ8AMIIBCgKCAQEA3rTIXHfgLbH1ua0WRzWgNWVl
xuFAqx60uRO3y4y7d6V22m2Hh/ZKTRPkJj4nh+5bx2o/RTBhVVz2NdFl+pgRo6dV
1b6Rgkv8vpDWUFNjmiwi4TUR3HgCl4rkRpKcUwh23h9TtrjKdz55brzQ4w0wW0z2
lA0wKWSfBOXb+4lgZ7uvJoNRdyQvKwuhlIEQmOjrJqgefOTEbGcGlVVK3VL08mBt
ASsZkTVtpAhHBnEkANnexlbzi1Ms4pqWpfNi5cTjI/LS/CHqD2J2jdWZSM7cWMS7
f9qULIB0g8XgsBV+Qf0O8vTweHZ7rSYNqkiWFy8h45UrJjf5qoAv/t72XryXfwID
AQABo4IBOTCCATUwDAYDVR0TBAUwAwEB/zAdBgNVHQ4EFgQUg8Y6iSyB9ALXnUzi
KsBxgmRE2g4wgcQGA1UdIwSBvDCBuYAUc7AcpC+Cy89HpTjXsASCOn5yFSGhgZ2k
gZowgZcxCzAJBgNVBAYTAlVTMRMwEQYDVQQIDApXYXNoaW5ndG9uMRAwDgYDVQQH
DAdTZWF0dGxlMRAwDgYDVQQKDAd3b2xmU1NMMRQwEgYDVQQLDAtFbmdpbmVlcmlu
ZzEYMBYGA1UEAwwPd29sZlNTTCByb290IENBMR8wHQYJKoZIhvcNAQkBFhBpbmZv
QHdvbGZzc2wuY29tggFjMAsGA1UdDwQEAwIBBjAyBggrBgEFBQcBAQQmMCQwIgYI
KwYBBQUHMAGGFmh0dHA6Ly8xMjcuMC4wLjE6MjIyMjAwDQYJKoZIhvcNAQELBQAD
ggEBAA+iGZMJL8jFkWIrHpxpk+pf8V64FY4PyYIIOmtgP60b+keUpzEzNGzPCWP9
jN5ixC5fcRkuqJZjNxbnvzdnLUY2ctDkA6eJoeRML3YxeQ2Ershhz5gDLxL8F2Bg
iLCWoKhZ9ZYdPR7gwCb9Gz5Cc60dOQ//2fBxUuOam3q0oq9Q5zN/ZkBlvTEMySGw
0T/ftnflBcokuXLJgsafvhL2XTk0tyDf4STDsv6YttNsPkNia+JtVmWZPqouqMuC
LZsR2oq2YyASx6BbXVsJKUdQrU4faCnS2Q5fXIPo5v3H5fkUDRSObjTdT+wBdVQt
JMjGmMN/2B1Pxa7gso71qLtLH6o=
-----END CERTIFICATE-----
Certificate:
    Data:
        Version: 3 (0x2)
        Serial Number: 99 (0x63)
    Signature Algorithm: sha256WithRSAEncryption
        Issuer: C=US, ST=Washington, L=Seattle, O=wolfSSL, OU=Engineering, CN=wolfSSL root CA/emailAddress=info@wolfssl.com
        Validity
            Not Before: Dec 30 19:12:46 2015 GMT
            Not After : Sep 25 19:12:46 2018 GMT
        Subject: C=US, ST=Washington, L=Seattle, O=wolfSSL, OU=Engineering, CN=wolfSSL root CA/emailAddress=info@wolfssl.com
        Subject Public Key Info:
            Public Key Algorithm: rsaEncryption
                Public-Key: (2048 bit)
                Modulus:
                    00:ab:2c:b4:2f:1d:06:09:ef:4e:29:86:84:7e:cc:
                    bf:a6:79:7c:f0:c0:c1:64:25:8c:75:b7:10:05:ca:
                    48:27:0c:0e:32:1c:b0:fe:99:85:39:b6:b9:a2:f7:
                    27:ff:6d:3c:8c:16:73:29:21:7f:8b:a6:54:71:90:
                    ad:cc:05:b9:9f:15:c7:0a:3f:5f:69:f4:0a:5f:8c:
                    71:b5:2c:bf:66:e2:03:9a:32:f4:d2:ec:2a:89:4b:
                    f9:35:88:14:33:47:4e:2e:05:79:01:ed:64:36:76:
                    b9:f8:85:cd:01:88:ac:c5:b2:b1:59:b8:cd:5a:f4:
                    09:09:38:9b:da:5a:cf:ce:78:99:1f:49:3d:41:d6:
                    06:7c:52:99:c8:97:d1:b3:80:3a:a2:4f:36:c4:c5:
                    96:30:77:31:38:c8:70:cc:e1:67:06:b3:2b:2f:93:
                    b5:69:cf:83:7e:88:53:9b:0f:46:21:4c:d6:05:36:
                    44:99:60:68:47:e5:32:01:12:d4:10:73:ae:9a:34:
                    94:fa:6e:b8:58:4f:7b:5b:8a:92:97:ad:fd:97:b9:
                    75:ca:c2:d4:45:7d:17:6b:cd:2f:f3:63:7a:0e:30:
                    b5:0b:a9:d9:a6:7c:74:60:9d:cc:09:03:43:f1:0f:
                    90:d3:b7:fe:6c:9f:d9:cd:78:4b:15:ae:8c:5b:f9:
                    99:81
                Exponent: 65537 (0x10001)
        X509v3 extensions:
            X509v3 Basic Constraints: 
                CA:TRUE
            X509v3 Subject Key Identifier: 
                73:B0:1C:A4:2F:82:CB:CF:47:A5:38:D7:B0:04:82:3A:7E:72:15:21
            X509v3 Authority Key Identifier: 
                keyid:73:B0:1C:A4:2F:82:CB:CF:47:A5:38:D7:B0:04:82:3A:7E:72:15:21
                DirName:/C=US/ST=Washington/L=Seattle/O=wolfSSL/OU=Engineering/CN=wolfSSL root CA/emailAddress=info@wolfssl.com
                serial:63

            X509v3 Key Usage: 
                Certificate Sign, CRL Sign
            Authority Information Access: 
                OCSP - URI:http://127.0.0.1:22220

    Signature Algorithm: sha256WithRSAEncryption
         99:a3:7d:72:17:b7:c0:cd:98:bb:55:fa:f2:ea:9f:17:81:6e:
         8e:02:25:c6:4d:42:cd:32:64:13:f4:bf:42:0c:a6:4e:39:45:
         52:92:40:ed:16:78:17:a2:45:5e:d9:19:ac:1d:d4:56:68:c8:
         55:de:65:ae:ba:72:b0:c0:57:52:5e:5b:08:d9:dd:72:ca:18:
         6e:16:61:32:9a:8b:c0:7d:3e:5a:27:bc:2d:81:aa:36:d4:44:
         26:52:07:f2:41:3b:d1:0f:2e:64:2e:a7:f8:0f:c3:0e:d3:9d:
         73:b9:24:12:e8:ca:28:db:4f:48:c2:43:bb:b7:a8:14:be:8d:
         3a:2f:d3:3a:1a:eb:5f:15:61:e3:e8:03:65:88:d5:03:7e:25:
         7a:35:8d:45:17:3f:0d:10:fd:8e:27:31:65:ee:de:9d:5c:68:
         7f:68:95:bc:85:5a:fa:2a:10:37:82:ca:11:84:9b:90:1e:23:
         d6:2b:a6:c5:af:89:ef:31:37:56:0a:91:9e:0f:5b:3e:6c:c1:
         7d:29:cd:bb:38:3f:0e:cb:fb:05:04:e6:4f:5c:6a:c5:b6:a4:
         0f:0b:6a:25:bf:e9:ed:82:19:bb:6b:9a:2e:7d:40:58:0b:45:
         0e:ff:c2:73:39:9c:c2:ef:f4:7c:d0:9e:ae:c9:05:e1:e3:5e:
         bf:dd:65:6d
-----BEGIN CERTIFICATE-----
MIIE5jCCA86gAwIBAgIBYzANBgkqhkiG9w0BAQsFADCBlzELMAkGA1UEBhMCVVMx
EzARBgNVBAgMCldhc2hpbmd0b24xEDAOBgNVBAcMB1NlYXR0bGUxEDAOBgNVBAoM
B3dvbGZTU0wxFDASBgNVBAsMC0VuZ2luZWVyaW5nMRgwFgYDVQQDDA93b2xmU1NM
IHJvb3QgQ0ExHzAdBgkqhkiG9w0BCQEWEGluZm9Ad29sZnNzbC5jb20wHhcNMTUx
MjMwMTkxMjQ2WhcNMTgwOTI1MTkxMjQ2WjCBlzELMAkGA1UEBhMCVVMxEzARBgNV
BAgMCldhc2hpbmd0b24xEDAOBgNVBAcMB1NlYXR0bGUxEDAOBgNVBAoMB3dvbGZT
U0wxFDASBgNVBAsMC0VuZ2luZWVyaW5nMRgwFgYDVQQDDA93b2xmU1NMIHJvb3Qg
Q0ExHzAdBgkqhkiG9w0BCQEWEGluZm9Ad29sZnNzbC5jb20wggEiMA0GCSqGSIb3
DQEBAQUAA4IBDwAwggEKAoIBAQCrLLQvHQYJ704phoR+zL+meXzwwMFkJYx1txAF
ykgnDA4yHLD+mYU5trmi9yf/bTyMFnMpIX+LplRxkK3MBbmfFccKP19p9ApfjHG1
LL9m4gOaMvTS7CqJS/k1iBQzR04uBXkB7WQ2drn4hc0BiKzFsrFZuM1a9AkJOJva
Ws/OeJkfST1B1gZ8UpnIl9GzgDqiTzbExZYwdzE4yHDM4WcGsysvk7Vpz4N+iFOb
D0YhTNYFNkSZYGhH5TIBEtQQc66aNJT6brhYT3tbipKXrf2XuXXKwtRFfRdrzS/z
Y3oOMLULqdmmfHRgncwJA0PxD5DTt/5sn9nNeEsVroxb+ZmBAgMBAAGjggE5MIIB
NTAMBgNVHRMEBTADAQH/MB0GA1UdDgQWBBRzsBykL4LLz0elONewBII6fnIVITCB
xAYDVR0jBIG8MIG5gBRzsBykL4LLz0elONewBII6fnIVIaGBnaSBmjCBlzELMAkG
A1UEBhMCVVMxEzARBgNVBAgMCldhc2hpbmd0b24xEDAOBgNVBAcMB1NlYXR0bGUx
EDAOBgNVBAoMB3dvbGZTU0wxFDASBgNVBAsMC0VuZ2luZWVyaW5nMRgwFgYDVQQD
DA93b2xmU1NMIHJvb3QgQ0ExHzAdBgkqhkiG9w0BCQEWEGluZm9Ad29sZnNzbC5j
b22CAWMwCwYDVR0PBAQDAgEGMDIGCCsGAQUFBwEBBCYwJDAiBggrBgEFBQcwAYYW
aHR0cDovLzEyNy4wLjAuMToyMjIyMDANBgkqhkiG9w0BAQsFAAOCAQEAmaN9che3
wM2Yu1X68uqfF4FujgIlxk1CzTJkE/S/QgymTjlFUpJA7RZ4F6JFXtkZrB3UVmjI
Vd5lrrpysMBXUl5bCNndcsoYbhZhMpqLwH0+Wie8LYGqNtREJlIH8kE70Q8uZC6n
+A/DDtOdc7kkEujKKNtPSMJDu7eoFL6NOi/TOhrrXxVh4+gDZYjVA34lejWNRRc/
DRD9jicxZe7enVxof2iVvIVa+ioQN4LKEYSbkB4j1iumxa+J7zE3VgqRng9bPmzB
fSnNuzg/Dsv7BQTmT1xqxbakDwtqJb/p7YIZu2uaLn1AWAtFDv/Cczmcwu/0fNCe
rskF4eNev91lbQ==
-----END CERTIFICATE-----
