Certificate:
    Data:
        Version: 3 (0x2)
        Serial Number:
            b5:4e:78:83:dd:ef:e7:8f
    Signature Algorithm: sha256WithRSAEncryption
        Issuer: C=US, ST=Montana, L=Bozeman, O=Sawtooth, OU=Consulting_1024, CN=www.wolfssl.com/emailAddress=info@wolfssl.com
        Validity
            Not Before: Aug 11 20:07:37 2016 GMT
            Not After : May  8 20:07:37 2019 GMT
        Subject: C=US, ST=Montana, L=Bozeman, O=Sawtooth, OU=Consulting_1024, CN=www.wolfssl.com/emailAddress=info@wolfssl.com
        Subject Public Key Info:
            Public Key Algorithm: rsaEncryption
                Public-Key: (1024 bit)
                Modulus:
                    00:cd:ac:dd:47:ec:be:b7:24:c3:63:1b:54:98:79:
                    e1:c7:31:16:59:d6:9d:77:9d:8d:e2:8b:ed:04:17:
                    b2:c6:eb:e4:9b:91:be:31:50:62:97:58:b5:7f:29:
                    de:b3:71:24:0b:bf:97:09:7f:26:dc:2d:ec:a8:2e:
                    b2:64:2b:7a:2b:35:19:2d:a2:80:cb:99:fd:94:71:
                    1b:23:8d:54:db:2e:62:8d:81:08:2d:f4:24:72:27:
                    6c:f9:c9:8e:db:4c:75:ba:9b:01:f8:3f:18:f4:e6:
                    7f:fb:57:94:92:cc:88:c4:b4:00:c2:aa:d4:e5:88:
                    18:b3:11:2f:73:c0:d6:29:09
                Exponent: 65537 (0x10001)
        X509v3 extensions:
            X509v3 Subject Key Identifier: 
                D3:22:8F:28:2C:E0:05:EE:D3:ED:C3:71:3D:C9:B2:36:3A:1D:BF:A8
            X509v3 Authority Key Identifier: 
                keyid:D3:22:8F:28:2C:E0:05:EE:D3:ED:C3:71:3D:C9:B2:36:3A:1D:BF:A8
                DirName:/C=US/ST=Montana/L=Bozeman/O=Sawtooth/OU=Consulting_1024/CN=www.wolfssl.com/emailAddress=info@wolfssl.com
                serial:B5:4E:78:83:DD:EF:E7:8F

            X509v3 Basic Constraints: 
                CA:TRUE
    Signature Algorithm: sha256WithRSAEncryption
         5a:09:c3:7e:d5:cd:73:6f:d6:5d:1d:6c:a8:4a:12:82:3d:be:
         fe:09:d6:02:24:23:9a:07:67:4b:6e:60:a6:6d:42:aa:86:36:
         07:20:a9:44:b4:95:d6:81:db:9d:28:13:5f:a9:75:38:2d:80:
         c6:60:f7:4a:48:23:c0:97:ee:f7:65:35:19:8d:20:a2:00:24:
         5c:d9:35:22:99:1f:dd:5f:0c:83:f8:ab:4d:88:69:6a:b0:f4:
         82:5c:77:a5:50:b1:09:d1:5d:94:d8:b0:26:bf:c1:55:14:9f:
         e2:f0:2e:48:d1:7b:fc:52:bf:ac:6d:1a:3a:dd:36:ee:ca:51:
         4c:1d
-----BEGIN CERTIFICATE-----
MIIDtTCCAx6gAwIBAgIJALVOeIPd7+ePMA0GCSqGSIb3DQEBCwUAMIGZMQswCQYD
VQQGEwJVUzEQMA4GA1UECAwHTW9udGFuYTEQMA4GA1UEBwwHQm96ZW1hbjERMA8G
A1UECgwIU2F3dG9vdGgxGDAWBgNVBAsMD0NvbnN1bHRpbmdfMTAyNDEYMBYGA1UE
AwwPd3d3LndvbGZzc2wuY29tMR8wHQYJKoZIhvcNAQkBFhBpbmZvQHdvbGZzc2wu
Y29tMB4XDTE2MDgxMTIwMDczN1oXDTE5MDUwODIwMDczN1owgZkxCzAJBgNVBAYT
AlVTMRAwDgYDVQQIDAdNb250YW5hMRAwDgYDVQQHDAdCb3plbWFuMREwDwYDVQQK
DAhTYXd0b290aDEYMBYGA1UECwwPQ29uc3VsdGluZ18xMDI0MRgwFgYDVQQDDA93
d3cud29sZnNzbC5jb20xHzAdBgkqhkiG9w0BCQEWEGluZm9Ad29sZnNzbC5jb20w
gZ8wDQYJKoZIhvcNAQEBBQADgY0AMIGJAoGBAM2s3Ufsvrckw2MbVJh54ccxFlnW
nXedjeKL7QQXssbr5JuRvjFQYpdYtX8p3rNxJAu/lwl/Jtwt7KgusmQreis1GS2i
gMuZ/ZRxGyONVNsuYo2BCC30JHInbPnJjttMdbqbAfg/GPTmf/tXlJLMiMS0AMKq
1OWIGLMRL3PA1ikJAgMBAAGjggEBMIH+MB0GA1UdDgQWBBTTIo8oLOAF7tPtw3E9
ybI2Oh2/qDCBzgYDVR0jBIHGMIHDgBTTIo8oLOAF7tPtw3E9ybI2Oh2/qKGBn6SB
nDCBmTELMAkGA1UEBhMCVVMxEDAOBgNVBAgMB01vbnRhbmExEDAOBgNVBAcMB0Jv
emVtYW4xETAPBgNVBAoMCFNhd3Rvb3RoMRgwFgYDVQQLDA9Db25zdWx0aW5nXzEw
MjQxGDAWBgNVBAMMD3d3dy53b2xmc3NsLmNvbTEfMB0GCSqGSIb3DQEJARYQaW5m
b0B3b2xmc3NsLmNvbYIJALVOeIPd7+ePMAwGA1UdEwQFMAMBAf8wDQYJKoZIhvcN
AQELBQADgYEAWgnDftXNc2/WXR1sqEoSgj2+/gnWAiQjmgdnS25gpm1CqoY2ByCp
RLSV1oHbnSgTX6l1OC2AxmD3SkgjwJfu92U1GY0gogAkXNk1Ipkf3V8Mg/irTYhp
arD0glx3pVCxCdFdlNiwJr/BVRSf4vAuSNF7/FK/rG0aOt027spRTB0=
-----END CERTIFICATE-----
