Certificate:
    Data:
        Version: 3 (0x2)
        Serial Number:
            c3:cd:c5:e4:24:18:70:ca
    Signature Algorithm: ecdsa-with-SHA256
        Issuer: C=US, ST=Montana, L=Bozeman, O=Elliptic - comp, OU=Server ECC-comp, CN=www.wolfssl.com/emailAddress=info@wolfssl.com
        Validity
            Not Before: Aug 11 20:07:38 2016 GMT
            Not After : May  8 20:07:38 2019 GMT
        Subject: C=US, ST=Montana, L=Bozeman, O=Elliptic - comp, OU=Server ECC-comp, CN=www.wolfssl.com/emailAddress=info@wolfssl.com
        Subject Public Key Info:
            Public Key Algorithm: id-ecPublicKey
                Public-Key: (256 bit)
                pub: 
                    02:bb:33:ac:4c:27:50:4a:c6:4a:a5:04:c3:3c:de:
                    9f:36:db:72:2d:ce:94:ea:2b:fa:cb:20:09:39:2c:
                    16:e8:61
                ASN1 OID: prime256v1
                NIST CURVE: P-256
        X509v3 extensions:
            X509v3 Subject Key Identifier: 
                8C:38:3A:6B:B8:24:B7:DF:6E:F4:59:AC:56:4E:AA:E2:58:A6:5A:18
            X509v3 Authority Key Identifier: 
                keyid:8C:38:3A:6B:B8:24:B7:DF:6E:F4:59:AC:56:4E:AA:E2:58:A6:5A:18
                DirName:/C=US/ST=Montana/L=Bozeman/O=Elliptic - comp/OU=Server ECC-comp/CN=www.wolfssl.com/emailAddress=info@wolfssl.com
                serial:C3:CD:C5:E4:24:18:70:CA

            X509v3 Basic Constraints: 
                CA:TRUE
    Signature Algorithm: ecdsa-with-SHA256
         30:45:02:21:00:ca:10:ec:8f:f1:eb:92:19:76:d7:16:54:f2:
         21:1c:38:0e:6e:22:3d:95:a4:bd:c8:8c:d2:d8:28:d3:9c:21:
         6d:02:20:71:39:0b:0d:ec:68:8c:64:b6:2c:68:da:03:b1:d8:
         e7:d4:f7:cb:a6:73:7e:08:00:c6:b8:04:9d:17:3e:66:7f
-----BEGIN CERTIFICATE-----
MIIDJDCCAsqgAwIBAgIJAMPNxeQkGHDKMAoGCCqGSM49BAMCMIGgMQswCQYDVQQG
EwJVUzEQMA4GA1UECAwHTW9udGFuYTEQMA4GA1UEBwwHQm96ZW1hbjEYMBYGA1UE
CgwPRWxsaXB0aWMgLSBjb21wMRgwFgYDVQQLDA9TZXJ2ZXIgRUNDLWNvbXAxGDAW
BgNVBAMMD3d3dy53b2xmc3NsLmNvbTEfMB0GCSqGSIb3DQEJARYQaW5mb0B3b2xm
c3NsLmNvbTAeFw0xNjA4MTEyMDA3MzhaFw0xOTA1MDgyMDA3MzhaMIGgMQswCQYD
VQQGEwJVUzEQMA4GA1UECAwHTW9udGFuYTEQMA4GA1UEBwwHQm96ZW1hbjEYMBYG
A1UECgwPRWxsaXB0aWMgLSBjb21wMRgwFgYDVQQLDA9TZXJ2ZXIgRUNDLWNvbXAx
GDAWBgNVBAMMD3d3dy53b2xmc3NsLmNvbTEfMB0GCSqGSIb3DQEJARYQaW5mb0B3
b2xmc3NsLmNvbTA5MBMGByqGSM49AgEGCCqGSM49AwEHAyIAArszrEwnUErGSqUE
wzzenzbbci3OlOor+ssgCTksFuhho4IBCTCCAQUwHQYDVR0OBBYEFIw4Omu4JLff
bvRZrFZOquJYploYMIHVBgNVHSMEgc0wgcqAFIw4Omu4JLffbvRZrFZOquJYploY
oYGmpIGjMIGgMQswCQYDVQQGEwJVUzEQMA4GA1UECAwHTW9udGFuYTEQMA4GA1UE
BwwHQm96ZW1hbjEYMBYGA1UECgwPRWxsaXB0aWMgLSBjb21wMRgwFgYDVQQLDA9T
ZXJ2ZXIgRUNDLWNvbXAxGDAWBgNVBAMMD3d3dy53b2xmc3NsLmNvbTEfMB0GCSqG
SIb3DQEJARYQaW5mb0B3b2xmc3NsLmNvbYIJAMPNxeQkGHDKMAwGA1UdEwQFMAMB
Af8wCgYIKoZIzj0EAwIDSAAwRQIhAMoQ7I/x65IZdtcWVPIhHDgObiI9laS9yIzS
2CjTnCFtAiBxOQsN7GiMZLYsaNoDsdjn1PfLpnN+CADGuASdFz5mfw==
-----END CERTIFICATE-----
